TN:
SF:/Users/danil/education/semestr3/Laba3-semestr3/Laba3/C++/include/Array.h
FNL:0,34,34
FNA:0,143,_ZNK5Array7getSizeEv
FNL:1,36,36
FNA:1,33,_ZNK5Array5emptyEv
FNF:2
FNH:2
DA:34,143
DA:36,33
LF:2
LH:2
end_of_record
TN:
SF:/Users/danil/education/semestr3/Laba3-semestr3/Laba3/C++/include/BinarySearchTree.h
FNL:0,14,15
FNA:0,11418,_ZN16BinarySearchTree4NodeC1ERKNSt3__112basic_stringIcNS1_11char_traitsIcEENS1_9allocatorIcEEEE
FNA:0,11418,_ZN16BinarySearchTree4NodeC2ERKNSt3__112basic_stringIcNS1_11char_traitsIcEENS1_9allocatorIcEEEE
FNL:1,45,45
FNA:1,143,_ZNK16BinarySearchTree7getSizeEv
FNL:2,46,46
FNA:2,33,_ZNK16BinarySearchTree5emptyEv
FNL:3,9,14
FNA:3,11418,_ZN16BinarySearchTree4NodeD1Ev
FNA:3,11418,_ZN16BinarySearchTree4NodeD2Ev
FNF:4
FNH:4
DA:14,22836
DA:15,22836
DA:45,143
DA:46,33
LF:4
LH:4
end_of_record
TN:
SF:/Users/danil/education/semestr3/Laba3-semestr3/Laba3/C++/include/DoubleLinkedList.h
FNL:0,14,15
FNA:0,1243,_ZN16DoubleLinkedList4NodeC1ERKNSt3__112basic_stringIcNS1_11char_traitsIcEENS1_9allocatorIcEEEE
FNA:0,1243,_ZN16DoubleLinkedList4NodeC2ERKNSt3__112basic_stringIcNS1_11char_traitsIcEENS1_9allocatorIcEEEE
FNL:1,43,43
FNA:1,143,_ZNK16DoubleLinkedList7getSizeEv
FNL:2,44,44
FNA:2,11,_ZNK16DoubleLinkedList5emptyEv
FNL:3,9,14
FNA:3,1243,_ZN16DoubleLinkedList4NodeD1Ev
FNA:3,1243,_ZN16DoubleLinkedList4NodeD2Ev
FNF:4
FNH:4
DA:14,2486
DA:15,2486
DA:43,143
DA:44,11
LF:4
LH:4
end_of_record
TN:
SF:/Users/danil/education/semestr3/Laba3-semestr3/Laba3/C++/include/HashTable.h
FNL:0,14,15
FNA:0,5401,_ZN9HashTable4NodeC1ERKNSt3__112basic_stringIcNS1_11char_traitsIcEENS1_9allocatorIcEEEES9_
FNA:0,5401,_ZN9HashTable4NodeC2ERKNSt3__112basic_stringIcNS1_11char_traitsIcEENS1_9allocatorIcEEEES9_
FNL:1,43,43
FNA:1,121,_ZNK9HashTable7getSizeEv
FNL:2,45,45
FNA:2,33,_ZNK9HashTable5emptyEv
FNL:3,9,14
FNA:3,5401,_ZN9HashTable4NodeD1Ev
FNA:3,5401,_ZN9HashTable4NodeD2Ev
FNF:4
FNH:4
DA:14,10802
DA:15,10802
DA:43,121
DA:45,33
LF:4
LH:4
end_of_record
TN:
SF:/Users/danil/education/semestr3/Laba3-semestr3/Laba3/C++/include/LinkedList.h
FNL:0,13,13
FNA:0,132,_ZN10LinkedList4NodeC1ERKNSt3__112basic_stringIcNS1_11char_traitsIcEENS1_9allocatorIcEEEE
FNA:0,132,_ZN10LinkedList4NodeC2ERKNSt3__112basic_stringIcNS1_11char_traitsIcEENS1_9allocatorIcEEEE
FNL:1,40,40
FNA:1,154,_ZNK10LinkedList7getSizeEv
FNL:2,41,41
FNA:2,22,_ZNK10LinkedList5emptyEv
FNL:3,9,13
FNA:3,132,_ZN10LinkedList4NodeD1Ev
FNA:3,132,_ZN10LinkedList4NodeD2Ev
FNF:4
FNH:4
DA:13,264
DA:40,154
DA:41,22
LF:3
LH:3
end_of_record
TN:
SF:/Users/danil/education/semestr3/Laba3-semestr3/Laba3/C++/include/Queue.h
FNL:0,13,13
FNA:0,198,_ZN5Queue4NodeC1ERKNSt3__112basic_stringIcNS1_11char_traitsIcEENS1_9allocatorIcEEEE
FNA:0,198,_ZN5Queue4NodeC2ERKNSt3__112basic_stringIcNS1_11char_traitsIcEENS1_9allocatorIcEEEE
FNL:1,35,35
FNA:1,121,_ZNK5Queue7getSizeEv
FNL:2,36,36
FNA:2,33,_ZNK5Queue5emptyEv
FNL:3,9,13
FNA:3,198,_ZN5Queue4NodeD1Ev
FNA:3,198,_ZN5Queue4NodeD2Ev
FNF:4
FNH:4
DA:13,396
DA:35,121
DA:36,33
LF:3
LH:3
end_of_record
TN:
SF:/Users/danil/education/semestr3/Laba3-semestr3/Laba3/C++/include/Stack.h
FNL:0,13,13
FNA:0,231,_ZN5Stack4NodeC1ERKNSt3__112basic_stringIcNS1_11char_traitsIcEENS1_9allocatorIcEEEE
FNA:0,231,_ZN5Stack4NodeC2ERKNSt3__112basic_stringIcNS1_11char_traitsIcEENS1_9allocatorIcEEEE
FNL:1,34,34
FNA:1,99,_ZNK5Stack7getSizeEv
FNL:2,35,35
FNA:2,33,_ZNK5Stack5emptyEv
FNL:3,9,13
FNA:3,231,_ZN5Stack4NodeD1Ev
FNA:3,231,_ZN5Stack4NodeD2Ev
FNF:4
FNH:4
DA:13,462
DA:34,99
DA:35,33
LF:3
LH:3
end_of_record
TN:
SF:/Users/danil/education/semestr3/Laba3-semestr3/Laba3/C++/src/Array.cpp
FNL:0,104,104
FNA:0,22,_ZN5Array5clearEv
FNL:1,106,113
FNA:1,11,_ZNK5Array9serializeERNSt3__114basic_ofstreamIcNS0_11char_traitsIcEEEE
FNL:2,115,129
FNA:2,11,_ZN5Array11deserializeERNSt3__114basic_ifstreamIcNS0_11char_traitsIcEEEE
FNL:3,17,22
FNA:3,11,_ZN5ArrayC1ERKS_
FNA:3,11,_ZN5ArrayC2ERKS_
FNL:4,24,24
FNA:4,44,_ZN5ArrayD1Ev
FNA:4,44,_ZN5ArrayD2Ev
FNL:5,26,36
FNA:5,11,_ZN5ArrayaSERKS_
FNL:6,39,47
FNA:6,44,_ZN5Array6resizeEv
FNL:7,49,54
FNA:7,1155,_ZN5Array6appendERKNSt3__112basic_stringIcNS0_11char_traitsIcEENS0_9allocatorIcEEEE
FNL:8,5,7
FNA:8,33,_ZN5ArrayC1Ev
FNA:8,33,_ZN5ArrayC2Ev
FNL:9,56,68
FNA:9,11,_ZN5Array6insertEiRKNSt3__112basic_stringIcNS0_11char_traitsIcEENS0_9allocatorIcEEEE
FNL:10,70,75
FNA:10,143,_ZNK5Array3getEi
FNL:11,77,82
FNA:11,33,_ZN5Array3setEiRKNSt3__112basic_stringIcNS0_11char_traitsIcEENS0_9allocatorIcEEEE
FNL:12,84,92
FNA:12,22,_ZN5Array6removeEi
FNL:13,9,15
FNA:13,0,_ZN5ArrayC1Ei
FNA:13,0,_ZN5ArrayC2Ei
FNL:14,94,102
FNA:14,22,_ZN5Array13removeByValueERKNSt3__112basic_stringIcNS0_11char_traitsIcEENS0_9allocatorIcEEEE
FNF:15
FNH:14
DA:5,66
DA:6,33
DA:7,66
DA:9,0
DA:10,0
DA:11,0
DA:12,0
DA:13,0
DA:14,0
DA:15,0
DA:17,22
DA:18,11
DA:19,33
DA:20,22
DA:21,22
DA:22,22
DA:24,88
DA:26,11
DA:27,11
DA:28,11
DA:29,11
DA:30,11
DA:31,11
DA:32,33
DA:33,22
DA:34,22
DA:35,11
DA:36,11
DA:39,44
DA:40,44
DA:41,44
DA:42,1694
DA:43,1650
DA:44,1650
DA:45,44
DA:46,44
DA:47,44
DA:49,1155
DA:50,1155
DA:51,44
DA:52,44
DA:53,1155
DA:54,1155
DA:56,11
DA:57,11
DA:58,0
DA:60,11
DA:61,0
DA:62,0
DA:63,33
DA:64,22
DA:65,22
DA:66,11
DA:67,11
DA:68,11
DA:70,143
DA:71,143
DA:72,11
DA:74,132
DA:75,0
DA:77,33
DA:78,33
DA:79,11
DA:81,22
DA:82,22
DA:84,22
DA:85,22
DA:86,0
DA:88,55
DA:89,33
DA:90,33
DA:91,22
DA:92,22
DA:94,22
DA:95,55
DA:96,44
DA:97,11
DA:98,11
DA:100,33
DA:101,11
DA:102,22
DA:104,22
DA:106,11
DA:107,11
DA:108,33
DA:109,22
DA:110,22
DA:111,22
DA:112,22
DA:113,11
DA:115,11
DA:116,11
DA:118,11
DA:120,33
DA:122,22
DA:123,22
DA:124,22
DA:125,22
DA:126,22
DA:127,22
DA:128,22
DA:129,11
LF:102
LH:90
end_of_record
TN:
SF:/Users/danil/education/semestr3/Laba3-semestr3/Laba3/C++/src/BinarySearchTree.cpp
FNL:0,111,117
FNA:0,22858,_ZN16BinarySearchTree11clearHelperEPNS_4NodeE
FNL:1,119,121
FNA:1,11165,_ZN16BinarySearchTree6insertERKNSt3__112basic_stringIcNS0_11char_traitsIcEENS0_9allocatorIcEEEE
FNL:2,12,12
FNA:2,44,_ZN16BinarySearchTreeD1Ev
FNA:2,44,_ZN16BinarySearchTreeD2Ev
FNL:3,123,125
FNA:3,33,_ZN16BinarySearchTree6removeERKNSt3__112basic_stringIcNS0_11char_traitsIcEENS0_9allocatorIcEEEE
FNL:4,127,128
FNA:4,330,_ZNK16BinarySearchTree6searchERKNSt3__112basic_stringIcNS0_11char_traitsIcEENS0_9allocatorIcEEEE
FNL:5,131,135
FNA:5,88,_ZN16BinarySearchTree5clearEv
FNL:6,137,150
FNA:6,187,_ZNK16BinarySearchTree15serializeHelperEPNS_4NodeERNSt3__114basic_ofstreamIcNS2_11char_traitsIcEEEE
FNL:7,14,20
FNA:7,11,_ZN16BinarySearchTreeaSERKS_
FNL:8,152,155
FNA:8,11,_ZNK16BinarySearchTree9serializeERNSt3__114basic_ofstreamIcNS0_11char_traitsIcEEEE
FNL:9,157,160
FNA:9,11,_ZN16BinarySearchTree11deserializeERNSt3__114basic_ifstreamIcNS0_11char_traitsIcEEEE
FNL:10,163,186
FNA:10,187,_ZZN16BinarySearchTree11deserializeERNSt3__114basic_ifstreamIcNS0_11char_traitsIcEEEEENK3$_0clEv
FNL:11,23,32
FNA:11,374,_ZN16BinarySearchTree10copyHelperEPKNS_4NodeE
FNL:12,35,49
FNA:12,199276,_ZN16BinarySearchTree12insertHelperEPNS_4NodeERKNSt3__112basic_stringIcNS2_11char_traitsIcEENS2_9allocatorIcEEEE
FNL:13,4,4
FNA:13,33,_ZN16BinarySearchTreeC1Ev
FNA:13,33,_ZN16BinarySearchTreeC2Ev
FNL:14,51,55
FNA:14,11,_ZNK16BinarySearchTree7findMinEPNS_4NodeE
FNL:15,59,94
FNA:15,88,_ZN16BinarySearchTree12removeHelperEPNS_4NodeERKNSt3__112basic_stringIcNS2_11char_traitsIcEENS2_9allocatorIcEEEE
FNL:16,6,10
FNA:16,11,_ZN16BinarySearchTreeC1ERKS_
FNA:16,11,_ZN16BinarySearchTreeC2ERKS_
FNL:17,96,109
FNA:17,902,_ZNK16BinarySearchTree12searchHelperEPNS_4NodeERKNSt3__112basic_stringIcNS2_11char_traitsIcEENS2_9allocatorIcEEEE
FNF:18
FNH:18
DA:4,66
DA:6,22
DA:7,22
DA:8,11
DA:9,11
DA:10,22
DA:12,88
DA:14,11
DA:15,11
DA:16,11
DA:17,11
DA:18,11
DA:19,11
DA:20,11
DA:23,374
DA:24,374
DA:25,198
DA:28,176
DA:29,176
DA:30,176
DA:31,176
DA:32,374
DA:35,199276
DA:36,199276
DA:37,11154
DA:38,11154
DA:41,188122
DA:42,18733
DA:43,188122
DA:44,169378
DA:45,169378
DA:48,188122
DA:49,199276
DA:51,11
DA:52,22
DA:53,11
DA:55,11
DA:59,88
DA:60,88
DA:61,0
DA:64,88
DA:65,44
DA:66,88
DA:67,0
DA:68,0
DA:70,44
DA:71,22
DA:72,22
DA:73,22
DA:74,22
DA:75,0
DA:76,0
DA:77,0
DA:78,0
DA:79,22
DA:80,11
DA:81,11
DA:82,11
DA:83,11
DA:86,11
DA:87,11
DA:88,11
DA:89,11
DA:93,55
DA:94,88
DA:96,902
DA:98,902
DA:99,55
DA:102,847
DA:103,275
DA:104,572
DA:105,264
DA:107,308
DA:109,902
DA:111,22858
DA:112,22858
DA:113,11385
DA:114,11385
DA:115,11385
DA:116,11385
DA:117,22858
DA:119,11165
DA:120,11165
DA:121,11165
DA:123,33
DA:124,33
DA:125,33
DA:127,330
DA:128,330
DA:131,88
DA:132,88
DA:133,88
DA:134,88
DA:135,88
DA:137,187
DA:138,187
DA:139,99
DA:140,99
DA:141,99
DA:144,88
DA:145,88
DA:146,88
DA:148,88
DA:149,88
DA:150,187
DA:152,11
DA:153,11
DA:154,11
DA:155,11
DA:157,11
DA:158,11
DA:160,11
DA:163,198
DA:165,187
DA:167,187
DA:168,99
DA:171,88
DA:172,88
DA:173,88
DA:175,88
DA:176,88
DA:178,88
DA:179,88
DA:181,88
DA:182,187
DA:184,11
DA:185,11
DA:186,11
LF:128
LH:121
end_of_record
TN:
SF:/Users/danil/education/semestr3/Laba3-semestr3/Laba3/C++/src/DoubleLinkedList.cpp
FNL:0,119,133
FNA:0,11,_ZN16DoubleLinkedList8popFrontEv
FNL:1,135,149
FNA:1,22,_ZN16DoubleLinkedList7popBackEv
FNL:2,15,15
FNA:2,44,_ZN16DoubleLinkedListD1Ev
FNA:2,44,_ZN16DoubleLinkedListD2Ev
FNL:3,151,173
FNA:3,11,_ZN16DoubleLinkedList6removeEi
FNL:4,17,26
FNA:4,11,_ZN16DoubleLinkedListaSERKS_
FNL:5,175,194
FNA:5,22,_ZN16DoubleLinkedList13removeByValueERKNSt3__112basic_stringIcNS0_11char_traitsIcEENS0_9allocatorIcEEEE
FNL:6,196,204
FNA:6,99,_ZN16DoubleLinkedList5clearEv
FNL:7,206,215
FNA:7,11,_ZNK16DoubleLinkedList9serializeERNSt3__114basic_ofstreamIcNS0_11char_traitsIcEEEE
FNL:8,217,231
FNA:8,11,_ZN16DoubleLinkedList11deserializeERNSt3__114basic_ifstreamIcNS0_11char_traitsIcEEEE
FNL:9,29,39
FNA:9,11,_ZN16DoubleLinkedList9pushFrontERKNSt3__112basic_stringIcNS0_11char_traitsIcEENS0_9allocatorIcEEEE
FNL:10,4,4
FNA:10,33,_ZN16DoubleLinkedListC1Ev
FNA:10,33,_ZN16DoubleLinkedListC2Ev
FNL:11,41,51
FNA:11,1221,_ZN16DoubleLinkedList8pushBackERKNSt3__112basic_stringIcNS0_11char_traitsIcEENS0_9allocatorIcEEEE
FNL:12,53,77
FNA:12,11,_ZN16DoubleLinkedList6insertEiRKNSt3__112basic_stringIcNS0_11char_traitsIcEENS0_9allocatorIcEEEE
FNL:13,6,13
FNA:13,11,_ZN16DoubleLinkedListC1ERKS_
FNA:13,11,_ZN16DoubleLinkedListC2ERKS_
FNL:14,79,97
FNA:14,88,_ZNK16DoubleLinkedList3getEi
FNL:15,99,117
FNA:15,11,_ZN16DoubleLinkedList3setEiRKNSt3__112basic_stringIcNS0_11char_traitsIcEENS0_9allocatorIcEEEE
FNF:16
FNH:16
DA:4,66
DA:6,22
DA:7,22
DA:8,11
DA:9,33
DA:10,22
DA:11,22
DA:13,22
DA:15,88
DA:17,11
DA:18,11
DA:19,11
DA:20,11
DA:21,33
DA:22,22
DA:23,22
DA:25,11
DA:26,11
DA:29,11
DA:30,11
DA:31,11
DA:32,0
DA:33,0
DA:34,11
DA:35,11
DA:36,11
DA:38,11
DA:39,11
DA:41,1221
DA:42,1221
DA:43,1221
DA:44,66
DA:45,66
DA:46,1155
DA:47,1155
DA:48,1155
DA:50,1221
DA:51,1221
DA:53,11
DA:54,11
DA:55,0
DA:57,11
DA:58,0
DA:59,0
DA:61,11
DA:62,0
DA:63,0
DA:66,11
DA:67,11
DA:68,22
DA:69,11
DA:70,11
DA:72,11
DA:73,11
DA:74,11
DA:75,11
DA:76,11
DA:77,11
DA:79,88
DA:80,88
DA:81,0
DA:85,88
DA:86,44
DA:87,44
DA:88,0
DA:89,0
DA:90,44
DA:91,44
DA:92,594
DA:93,550
DA:94,550
DA:96,88
DA:97,0
DA:99,11
DA:100,11
DA:101,0
DA:105,11
DA:106,11
DA:107,11
DA:108,0
DA:109,0
DA:110,11
DA:111,0
DA:112,0
DA:113,0
DA:114,0
DA:116,11
DA:117,11
DA:119,11
DA:120,11
DA:121,0
DA:124,11
DA:125,11
DA:126,11
DA:127,11
DA:128,11
DA:129,0
DA:131,11
DA:132,11
DA:133,11
DA:135,22
DA:136,22
DA:137,0
DA:140,22
DA:141,22
DA:142,22
DA:143,22
DA:144,22
DA:145,0
DA:147,22
DA:148,22
DA:149,22
DA:151,11
DA:152,11
DA:153,0
DA:155,11
DA:156,0
DA:157,0
DA:159,11
DA:160,0
DA:161,0
DA:164,11
DA:165,22
DA:166,11
DA:167,11
DA:169,11
DA:170,11
DA:171,11
DA:172,11
DA:173,11
DA:175,22
DA:176,22
DA:177,66
DA:178,55
DA:179,11
DA:180,0
DA:181,11
DA:182,11
DA:183,11
DA:184,0
DA:185,0
DA:186,0
DA:187,0
DA:189,11
DA:191,44
DA:193,11
DA:194,22
DA:196,99
DA:197,1298
DA:198,1199
DA:199,1199
DA:200,1199
DA:202,99
DA:203,99
DA:204,99
DA:206,11
DA:207,11
DA:208,11
DA:209,33
DA:210,22
DA:211,22
DA:212,22
DA:213,22
DA:215,11
DA:217,11
DA:218,11
DA:220,11
DA:222,33
DA:224,22
DA:225,22
DA:226,22
DA:227,22
DA:228,22
DA:229,22
DA:230,22
DA:231,11
LF:176
LH:144
end_of_record
TN:
SF:/Users/danil/education/semestr3/Laba3-semestr3/Laba3/C++/src/HashTable.cpp
FNL:0,103,125
FNA:0,5412,_ZN9HashTable6insertERKNSt3__112basic_stringIcNS0_11char_traitsIcEENS0_9allocatorIcEEEES8_
FNL:1,12,21
FNA:1,0,_ZN9HashTableC1Ei
FNA:1,0,_ZN9HashTableC2Ei
FNL:2,127,139
FNA:2,99,_ZNK9HashTable3getERKNSt3__112basic_stringIcNS0_11char_traitsIcEENS0_9allocatorIcEEEE
FNL:3,141,152
FNA:3,33,_ZNK9HashTable8containsERKNSt3__112basic_stringIcNS0_11char_traitsIcEENS0_9allocatorIcEEEE
FNL:4,154,173
FNA:4,11,_ZN9HashTable6removeERKNSt3__112basic_stringIcNS0_11char_traitsIcEENS0_9allocatorIcEEEE
FNL:5,175,186
FNA:5,88,_ZN9HashTable5clearEv
FNL:6,188,206
FNA:6,11,_ZNK9HashTable9serializeERNSt3__114basic_ofstreamIcNS0_11char_traitsIcEEEE
FNL:7,208,231
FNA:7,11,_ZN9HashTable11deserializeERNSt3__114basic_ifstreamIcNS0_11char_traitsIcEEEE
FNL:8,23,37
FNA:8,11,_ZN9HashTableC1ERKS_
FNA:8,11,_ZN9HashTableC2ERKS_
FNL:9,39,42
FNA:9,55,_ZN9HashTableD1Ev
FNA:9,55,_ZN9HashTableD2Ev
FNL:10,4,10
FNA:10,44,_ZN9HashTableC1Ev
FNA:10,44,_ZN9HashTableC2Ev
FNL:11,44,66
FNA:11,11,_ZN9HashTableaSERKS_
FNL:12,69,74
FNA:12,5555,_ZNK9HashTable4hashERKNSt3__112basic_stringIcNS0_11char_traitsIcEENS0_9allocatorIcEEEE
FNL:13,77,101
FNA:13,44,_ZN9HashTable6rehashEv
FNF:14
FNH:13
DA:4,88
DA:5,88
DA:6,44
DA:7,748
DA:8,704
DA:9,704
DA:10,88
DA:12,0
DA:13,0
DA:14,0
DA:15,0
DA:16,0
DA:17,0
DA:18,0
DA:19,0
DA:20,0
DA:21,0
DA:23,22
DA:24,22
DA:25,11
DA:26,2827
DA:27,2816
DA:28,2816
DA:30,2827
DA:31,2816
DA:32,3938
DA:33,1122
DA:34,1122
DA:36,2816
DA:37,22
DA:39,110
DA:40,55
DA:41,55
DA:42,110
DA:44,11
DA:45,11
DA:46,11
DA:47,11
DA:49,11
DA:50,11
DA:51,11
DA:53,11
DA:54,2827
DA:55,2816
DA:56,2816
DA:58,2827
DA:59,2816
DA:60,3938
DA:61,1122
DA:62,1122
DA:64,2816
DA:65,11
DA:66,11
DA:69,5555
DA:70,5555
DA:71,32329
DA:72,26774
DA:74,5555
DA:77,44
DA:78,44
DA:79,44
DA:81,44
DA:82,44
DA:83,5324
DA:84,5280
DA:85,5280
DA:87,44
DA:88,44
DA:90,2684
DA:91,2640
DA:92,4620
DA:93,1980
DA:94,1980
DA:95,1980
DA:96,1980
DA:98,2640
DA:100,44
DA:101,44
DA:103,5412
DA:104,5412
DA:105,44
DA:106,44
DA:108,5412
DA:109,5412
DA:112,6127
DA:113,726
DA:114,11
DA:115,11
DA:117,715
DA:121,5401
DA:122,5401
DA:123,5401
DA:124,5401
DA:125,5412
DA:127,99
DA:128,99
DA:129,99
DA:131,99
DA:132,88
DA:133,88
DA:135,0
DA:138,11
DA:139,0
DA:141,33
DA:142,33
DA:143,33
DA:145,33
DA:146,11
DA:147,11
DA:149,0
DA:151,22
DA:152,33
DA:154,11
DA:155,11
DA:156,11
DA:157,11
DA:159,11
DA:160,11
DA:161,11
DA:162,11
DA:163,11
DA:164,0
DA:166,11
DA:167,11
DA:168,11
DA:170,0
DA:171,0
DA:173,11
DA:175,88
DA:176,9416
DA:177,9328
DA:178,12738
DA:179,3410
DA:180,3410
DA:181,3410
DA:183,9328
DA:184,9328
DA:185,88
DA:186,88
DA:188,11
DA:189,11
DA:191,187
DA:192,176
DA:193,198
DA:194,22
DA:195,22
DA:197,22
DA:198,22
DA:200,22
DA:201,22
DA:203,22
DA:205,176
DA:206,11
DA:208,11
DA:209,11
DA:211,11
DA:213,33
DA:216,22
DA:217,22
DA:218,22
DA:219,22
DA:221,22
DA:222,22
DA:223,22
DA:224,22
DA:226,22
DA:228,22
DA:229,22
DA:230,22
DA:231,11
LF:170
LH:154
end_of_record
TN:
SF:/Users/danil/education/semestr3/Laba3-semestr3/Laba3/C++/src/LinkedList.cpp
FNL:0,100,118
FNA:0,11,_ZN10LinkedList7popBackEv
FNL:1,120,137
FNA:1,11,_ZN10LinkedList6removeEi
FNL:2,139,160
FNA:2,22,_ZN10LinkedList13removeByValueERKNSt3__112basic_stringIcNS0_11char_traitsIcEENS0_9allocatorIcEEEE
FNL:3,14,14
FNA:3,44,_ZN10LinkedListD1Ev
FNA:3,44,_ZN10LinkedListD2Ev
FNL:4,16,25
FNA:4,11,_ZN10LinkedListaSERKS_
FNL:5,162,169
FNA:5,77,_ZN10LinkedList5clearEv
FNL:6,171,180
FNA:6,11,_ZNK10LinkedList9serializeERNSt3__114basic_ofstreamIcNS0_11char_traitsIcEEEE
FNL:7,182,196
FNA:7,11,_ZN10LinkedList11deserializeERNSt3__114basic_ifstreamIcNS0_11char_traitsIcEEEE
FNL:8,28,33
FNA:8,33,_ZN10LinkedList9pushFrontERKNSt3__112basic_stringIcNS0_11char_traitsIcEENS0_9allocatorIcEEEE
FNL:9,35,47
FNA:9,88,_ZN10LinkedList8pushBackERKNSt3__112basic_stringIcNS0_11char_traitsIcEENS0_9allocatorIcEEEE
FNL:10,4,4
FNA:10,33,_ZN10LinkedListC1Ev
FNA:10,33,_ZN10LinkedListC2Ev
FNL:11,49,66
FNA:11,11,_ZN10LinkedList6insertEiRKNSt3__112basic_stringIcNS0_11char_traitsIcEENS0_9allocatorIcEEEE
FNL:12,6,12
FNA:12,11,_ZN10LinkedListC1ERKS_
FNA:12,11,_ZN10LinkedListC2ERKS_
FNL:13,68,77
FNA:13,66,_ZNK10LinkedList3getEi
FNL:14,79,88
FNA:14,11,_ZN10LinkedList3setEiRKNSt3__112basic_stringIcNS0_11char_traitsIcEENS0_9allocatorIcEEEE
FNL:15,90,98
FNA:15,11,_ZN10LinkedList8popFrontEv
FNF:16
FNH:16
DA:4,66
DA:6,22
DA:7,11
DA:8,33
DA:9,22
DA:10,22
DA:12,22
DA:14,88
DA:16,11
DA:17,11
DA:18,11
DA:19,11
DA:20,33
DA:21,22
DA:22,22
DA:24,11
DA:25,11
DA:28,33
DA:29,33
DA:30,33
DA:31,33
DA:32,33
DA:33,33
DA:35,88
DA:36,88
DA:37,88
DA:38,33
DA:39,33
DA:40,55
DA:41,88
DA:42,33
DA:44,55
DA:46,88
DA:47,88
DA:49,11
DA:50,11
DA:51,0
DA:53,11
DA:54,0
DA:55,0
DA:58,11
DA:59,11
DA:60,22
DA:61,11
DA:62,11
DA:63,11
DA:64,11
DA:65,11
DA:66,11
DA:68,66
DA:69,66
DA:70,0
DA:72,66
DA:73,143
DA:74,77
DA:75,77
DA:76,66
DA:77,0
DA:79,11
DA:80,11
DA:81,0
DA:83,11
DA:84,11
DA:85,0
DA:86,0
DA:87,11
DA:88,11
DA:90,11
DA:91,11
DA:92,0
DA:94,11
DA:95,11
DA:96,11
DA:97,11
DA:98,11
DA:100,11
DA:101,11
DA:102,0
DA:104,11
DA:105,0
DA:106,0
DA:107,0
DA:108,0
DA:111,11
DA:112,33
DA:113,22
DA:115,11
DA:116,11
DA:117,11
DA:118,11
DA:120,11
DA:121,11
DA:122,0
DA:124,11
DA:125,0
DA:126,0
DA:129,11
DA:130,11
DA:131,0
DA:132,0
DA:133,11
DA:134,11
DA:135,11
DA:136,11
DA:137,11
DA:139,22
DA:140,22
DA:141,0
DA:143,22
DA:144,0
DA:145,0
DA:148,22
DA:149,44
DA:150,33
DA:151,11
DA:152,11
DA:153,11
DA:154,11
DA:155,11
DA:157,22
DA:159,11
DA:160,22
DA:162,77
DA:163,165
DA:164,88
DA:165,88
DA:166,88
DA:168,77
DA:169,77
DA:171,11
DA:172,11
DA:173,11
DA:174,33
DA:175,22
DA:176,22
DA:177,22
DA:178,22
DA:180,11
DA:182,11
DA:183,11
DA:185,11
DA:187,33
DA:189,22
DA:190,22
DA:191,22
DA:192,22
DA:193,22
DA:194,22
DA:195,22
DA:196,11
LF:150
LH:128
end_of_record
TN:
SF:/Users/danil/education/semestr3/Laba3-semestr3/Laba3/C++/src/Queue.cpp
FNL:0,14,14
FNA:0,44,_ZN5QueueD1Ev
FNA:0,44,_ZN5QueueD2Ev
FNL:1,16,25
FNA:1,11,_ZN5QueueaSERKS_
FNL:2,28,37
FNA:2,198,_ZN5Queue7enqueueERKNSt3__112basic_stringIcNS0_11char_traitsIcEENS0_9allocatorIcEEEE
FNL:3,39,55
FNA:3,110,_ZN5Queue7dequeueEv
FNL:4,4,4
FNA:4,33,_ZN5QueueC1Ev
FNA:4,33,_ZN5QueueC2Ev
FNL:5,57,62
FNA:5,33,_ZNK5Queue4peekEv
FNL:6,6,12
FNA:6,11,_ZN5QueueC1ERKS_
FNA:6,11,_ZN5QueueC2ERKS_
FNL:7,64,72
FNA:7,77,_ZN5Queue5clearEv
FNL:8,74,83
FNA:8,11,_ZNK5Queue9serializeERNSt3__114basic_ofstreamIcNS0_11char_traitsIcEEEE
FNL:9,85,99
FNA:9,11,_ZN5Queue11deserializeERNSt3__114basic_ifstreamIcNS0_11char_traitsIcEEEE
FNF:10
FNH:10
DA:4,66
DA:6,22
DA:7,11
DA:8,33
DA:9,22
DA:10,22
DA:12,22
DA:14,88
DA:16,11
DA:17,11
DA:18,11
DA:19,11
DA:20,55
DA:21,44
DA:22,44
DA:24,11
DA:25,11
DA:28,198
DA:29,198
DA:30,198
DA:31,55
DA:32,55
DA:33,143
DA:34,143
DA:36,198
DA:37,198
DA:39,110
DA:40,110
DA:41,11
DA:44,99
DA:45,99
DA:46,99
DA:48,99
DA:49,22
DA:50,22
DA:52,99
DA:53,99
DA:54,99
DA:55,99
DA:57,33
DA:58,33
DA:59,11
DA:61,22
DA:62,0
DA:64,77
DA:65,176
DA:66,99
DA:67,99
DA:68,99
DA:70,77
DA:71,77
DA:72,77
DA:74,11
DA:75,11
DA:76,11
DA:77,55
DA:78,44
DA:79,44
DA:80,44
DA:81,44
DA:83,11
DA:85,11
DA:86,11
DA:88,11
DA:90,55
DA:92,44
DA:93,44
DA:94,44
DA:95,44
DA:96,44
DA:97,44
DA:98,44
DA:99,11
LF:73
LH:72
end_of_record
TN:
SF:/Users/danil/education/semestr3/Laba3-semestr3/Laba3/C++/src/Stack.cpp
FNL:0,26,26
FNA:0,66,_ZN5StackD1Ev
FNA:0,66,_ZN5StackD2Ev
FNL:1,28,49
FNA:1,11,_ZN5StackaSERKS_
FNL:2,4,4
FNA:2,55,_ZN5StackC1Ev
FNA:2,55,_ZN5StackC2Ev
FNL:3,51,56
FNA:3,231,_ZN5Stack4pushERKNSt3__112basic_stringIcNS0_11char_traitsIcEENS0_9allocatorIcEEEE
FNL:4,58,69
FNA:4,99,_ZN5Stack3popEv
FNL:5,6,24
FNA:5,11,_ZN5StackC1ERKS_
FNA:5,11,_ZN5StackC2ERKS_
FNL:6,71,76
FNA:6,22,_ZNK5Stack4peekEv
FNL:7,78,85
FNA:7,99,_ZN5Stack5clearEv
FNL:8,87,96
FNA:8,11,_ZNK5Stack9serializeERNSt3__114basic_ofstreamIcNS0_11char_traitsIcEEEE
FNL:9,98,120
FNA:9,11,_ZN5Stack11deserializeERNSt3__114basic_ifstreamIcNS0_11char_traitsIcEEEE
FNF:10
FNH:10
DA:4,110
DA:6,22
DA:7,11
DA:8,0
DA:11,11
DA:12,11
DA:13,44
DA:14,33
DA:15,33
DA:19,11
DA:20,44
DA:21,33
DA:22,33
DA:24,22
DA:26,132
DA:28,11
DA:29,11
DA:30,11
DA:31,11
DA:33,11
DA:34,11
DA:35,44
DA:36,33
DA:37,33
DA:41,11
DA:42,44
DA:43,33
DA:44,33
DA:46,11
DA:47,11
DA:48,11
DA:49,0
DA:51,231
DA:52,231
DA:53,231
DA:54,231
DA:55,231
DA:56,231
DA:58,99
DA:59,99
DA:60,11
DA:63,88
DA:64,88
DA:65,88
DA:66,88
DA:67,88
DA:68,88
DA:69,88
DA:71,22
DA:72,22
DA:73,11
DA:75,11
DA:76,0
DA:78,99
DA:79,242
DA:80,143
DA:81,143
DA:82,143
DA:84,99
DA:85,99
DA:87,11
DA:88,11
DA:89,11
DA:90,44
DA:91,33
DA:92,33
DA:93,33
DA:94,33
DA:96,11
DA:98,11
DA:99,11
DA:101,11
DA:104,11
DA:105,44
DA:107,33
DA:108,33
DA:109,33
DA:110,33
DA:111,33
DA:112,33
DA:113,33
DA:116,44
DA:117,33
DA:118,33
DA:119,11
DA:120,11
LF:86
LH:83
end_of_record
