TN:
SF:/Library/Developer/CommandLineTools/SDKs/MacOSX.sdk/usr/include/c++/v1/__algorithm/comp.h
FNL:0,39,40
FNA:0,358215,_ZNKSt3__16__lessIvvEclB8ne190102ImmEEbRKT_RKT0_
FNF:1
FNH:1
DA:39,358215
DA:40,358215
LF:2
LH:2
end_of_record
TN:
SF:/Library/Developer/CommandLineTools/SDKs/MacOSX.sdk/usr/include/c++/v1/__algorithm/min.h
FNL:0,29,30
FNA:0,358215,_ZNSt3__13minB8ne190102ImNS_6__lessIvvEEEERKT_S5_S5_T0_
FNL:1,35,36
FNA:1,358215,_ZNSt3__13minB8ne190102ImEERKT_S3_S3_
FNF:2
FNH:2
DA:29,358215
DA:30,358215
DA:35,358215
DA:36,358215
LF:4
LH:4
end_of_record
TN:
SF:/Library/Developer/CommandLineTools/SDKs/MacOSX.sdk/usr/include/c++/v1/__exception/exception.h
FNL:0,74,74
FNA:0,0,_ZNSt9exceptionC2B8ne190102Ev
FNF:1
FNH:0
DA:74,0
LF:1
LH:0
end_of_record
TN:
SF:/Library/Developer/CommandLineTools/SDKs/MacOSX.sdk/usr/include/c++/v1/__functional/function.h
FNL:0,107,108
FNA:0,11,_ZNSt3__110__function10__not_nullB8ne190102IZN16BinarySearchTree11deserializeERNS_14basic_ifstreamIcNS_11char_traitsIcEEEEE3$_0EEbRKT_
FNL:1,152,152
FNA:1,0,_ZNKSt3__110__function12__alloc_funcIZN16BinarySearchTree11deserializeERNS_14basic_ifstreamIcNS_11char_traitsIcEEEEE3$_0NS_9allocatorIS8_EEFPNS2_4NodeEvEE8__targetB8ne190102Ev
FNL:2,155,155
FNA:2,0,_ZNKSt3__110__function12__alloc_funcIZN16BinarySearchTree11deserializeERNS_14basic_ifstreamIcNS_11char_traitsIcEEEEE3$_0NS_9allocatorIS8_EEFPNS2_4NodeEvEE15__get_allocatorB8ne190102Ev
FNL:3,160,161
FNA:3,0,_ZNSt3__110__function12__alloc_funcIZN16BinarySearchTree11deserializeERNS_14basic_ifstreamIcNS_11char_traitsIcEEEEE3$_0NS_9allocatorIS8_EEFPNS2_4NodeEvEEC1B8ne190102ERKS8_RKSA_
FNA:3,0,_ZNSt3__110__function12__alloc_funcIZN16BinarySearchTree11deserializeERNS_14basic_ifstreamIcNS_11char_traitsIcEEEEE3$_0NS_9allocatorIS8_EEFPNS2_4NodeEvEEC2B8ne190102ERKS8_RKSA_
FNL:4,163,164
FNA:4,0,_ZNSt3__110__function12__alloc_funcIZN16BinarySearchTree11deserializeERNS_14basic_ifstreamIcNS_11char_traitsIcEEEEE3$_0NS_9allocatorIS8_EEFPNS2_4NodeEvEEC1B8ne190102ERKS8_OSA_
FNA:4,0,_ZNSt3__110__function12__alloc_funcIZN16BinarySearchTree11deserializeERNS_14basic_ifstreamIcNS_11char_traitsIcEEEEE3$_0NS_9allocatorIS8_EEFPNS2_4NodeEvEEC2B8ne190102ERKS8_OSA_
FNL:5,166,167
FNA:5,11,_ZNSt3__110__function12__alloc_funcIZN16BinarySearchTree11deserializeERNS_14basic_ifstreamIcNS_11char_traitsIcEEEEE3$_0NS_9allocatorIS8_EEFPNS2_4NodeEvEEC1B8ne190102EOS8_OSA_
FNA:5,11,_ZNSt3__110__function12__alloc_funcIZN16BinarySearchTree11deserializeERNS_14basic_ifstreamIcNS_11char_traitsIcEEEEE3$_0NS_9allocatorIS8_EEFPNS2_4NodeEvEEC2B8ne190102EOS8_OSA_
FNL:6,169,171
FNA:6,187,_ZNSt3__110__function12__alloc_funcIZN16BinarySearchTree11deserializeERNS_14basic_ifstreamIcNS_11char_traitsIcEEEEE3$_0NS_9allocatorIS8_EEFPNS2_4NodeEvEEclB8ne190102Ev
FNL:7,184,184
FNA:7,11,_ZNSt3__110__function12__alloc_funcIZN16BinarySearchTree11deserializeERNS_14basic_ifstreamIcNS_11char_traitsIcEEEEE3$_0NS_9allocatorIS8_EEFPNS2_4NodeEvEE7destroyB8ne190102Ev
FNL:8,239,239
FNA:8,11,_ZNSt3__110__function6__baseIFPN16BinarySearchTree4NodeEvEEC2B8ne190102Ev
FNL:9,240,240
FNA:9,0,_ZNSt3__110__function6__baseIFPN16BinarySearchTree4NodeEvEED0Ev
FNA:9,0,_ZNSt3__110__function6__baseIFPN16BinarySearchTree4NodeEvEED1Ev
FNA:9,0,_ZNSt3__110__function6__baseIFPN16BinarySearchTree4NodeEvEED2Ev
FNL:10,255
FNA:10,0,_ZNSt3__110__function6__funcIZN16BinarySearchTree11deserializeERNS_14basic_ifstreamIcNS_11char_traitsIcEEEEE3$_0NS_9allocatorIS8_EEFPNS2_4NodeEvEED0Ev
FNA:10,0,_ZNSt3__110__function6__funcIZN16BinarySearchTree11deserializeERNS_14basic_ifstreamIcNS_11char_traitsIcEEEEE3$_0NS_9allocatorIS8_EEFPNS2_4NodeEvEED1Ev
FNA:10,0,_ZNSt3__110__function6__funcIZN16BinarySearchTree11deserializeERNS_14basic_ifstreamIcNS_11char_traitsIcEEEEE3$_0NS_9allocatorIS8_EEFPNS2_4NodeEvEED2Ev
FNL:11,264,264
FNA:11,0,_ZNSt3__110__function6__funcIZN16BinarySearchTree11deserializeERNS_14basic_ifstreamIcNS_11char_traitsIcEEEEE3$_0NS_9allocatorIS8_EEFPNS2_4NodeEvEEC1B8ne190102ERKS8_RKSA_
FNA:11,0,_ZNSt3__110__function6__funcIZN16BinarySearchTree11deserializeERNS_14basic_ifstreamIcNS_11char_traitsIcEEEEE3$_0NS_9allocatorIS8_EEFPNS2_4NodeEvEEC2B8ne190102ERKS8_RKSA_
FNL:12,266,266
FNA:12,0,_ZNSt3__110__function6__funcIZN16BinarySearchTree11deserializeERNS_14basic_ifstreamIcNS_11char_traitsIcEEEEE3$_0NS_9allocatorIS8_EEFPNS2_4NodeEvEEC1B8ne190102ERKS8_OSA_
FNA:12,0,_ZNSt3__110__function6__funcIZN16BinarySearchTree11deserializeERNS_14basic_ifstreamIcNS_11char_traitsIcEEEEE3$_0NS_9allocatorIS8_EEFPNS2_4NodeEvEEC2B8ne190102ERKS8_OSA_
FNL:13,268,268
FNA:13,11,_ZNSt3__110__function6__funcIZN16BinarySearchTree11deserializeERNS_14basic_ifstreamIcNS_11char_traitsIcEEEEE3$_0NS_9allocatorIS8_EEFPNS2_4NodeEvEEC1B8ne190102EOS8_OSA_
FNA:13,11,_ZNSt3__110__function6__funcIZN16BinarySearchTree11deserializeERNS_14basic_ifstreamIcNS_11char_traitsIcEEEEE3$_0NS_9allocatorIS8_EEFPNS2_4NodeEvEEC2B8ne190102EOS8_OSA_
FNL:14,282,290
FNA:14,0,_ZNKSt3__110__function6__funcIZN16BinarySearchTree11deserializeERNS_14basic_ifstreamIcNS_11char_traitsIcEEEEE3$_0NS_9allocatorIS8_EEFPNS2_4NodeEvEE7__cloneEv
FNL:15,293,295
FNA:15,0,_ZNKSt3__110__function6__funcIZN16BinarySearchTree11deserializeERNS_14basic_ifstreamIcNS_11char_traitsIcEEEEE3$_0NS_9allocatorIS8_EEFPNS2_4NodeEvEE7__cloneEPNS0_6__baseISD_EE
FNL:16,298,300
FNA:16,11,_ZNSt3__110__function6__funcIZN16BinarySearchTree11deserializeERNS_14basic_ifstreamIcNS_11char_traitsIcEEEEE3$_0NS_9allocatorIS8_EEFPNS2_4NodeEvEE7destroyEv
FNL:17,303,309
FNA:17,0,_ZNSt3__110__function6__funcIZN16BinarySearchTree11deserializeERNS_14basic_ifstreamIcNS_11char_traitsIcEEEEE3$_0NS_9allocatorIS8_EEFPNS2_4NodeEvEE18destroy_deallocateEv
FNL:18,312,313
FNA:18,187,_ZNSt3__110__function6__funcIZN16BinarySearchTree11deserializeERNS_14basic_ifstreamIcNS_11char_traitsIcEEEEE3$_0NS_9allocatorIS8_EEFPNS2_4NodeEvEEclEv
FNL:19,319,323
FNA:19,0,_ZNKSt3__110__function6__funcIZN16BinarySearchTree11deserializeERNS_14basic_ifstreamIcNS_11char_traitsIcEEEEE3$_0NS_9allocatorIS8_EEFPNS2_4NodeEvEE6targetERKSt9type_info
FNL:20,326,327
FNA:20,0,_ZNKSt3__110__function6__funcIZN16BinarySearchTree11deserializeERNS_14basic_ifstreamIcNS_11char_traitsIcEEEEE3$_0NS_9allocatorIS8_EEFPNS2_4NodeEvEE11target_typeEv
FNL:21,352,369
FNA:21,11,_ZNSt3__110__function12__value_funcIFPN16BinarySearchTree4NodeEvEEC1B8ne190102IZNS2_11deserializeERNS_14basic_ifstreamIcNS_11char_traitsIcEEEEE3$_0NS_9allocatorISD_EEEEOT_RKT0_
FNA:21,11,_ZNSt3__110__function12__value_funcIFPN16BinarySearchTree4NodeEvEEC2B8ne190102IZNS2_11deserializeERNS_14basic_ifstreamIcNS_11char_traitsIcEEEEE3$_0NS_9allocatorISD_EEEEOT_RKT0_
FNL:22,372,372
FNA:22,11,_ZNSt3__110__function12__value_funcIFPN16BinarySearchTree4NodeEvEEC1B8ne190102IZNS2_11deserializeERNS_14basic_ifstreamIcNS_11char_traitsIcEEEEE3$_0Li0EEEOT_
FNL:23,396,401
FNA:23,11,_ZNSt3__110__function12__value_funcIFPN16BinarySearchTree4NodeEvEED1B8ne190102Ev
FNA:23,11,_ZNSt3__110__function12__value_funcIFPN16BinarySearchTree4NodeEvEED2B8ne190102Ev
FNL:24,427,430
FNA:24,187,_ZNKSt3__110__function12__value_funcIFPN16BinarySearchTree4NodeEvEEclB8ne190102Ev
FNL:25,63,63
FNA:25,0,_ZNSt3__117bad_function_callC1B8ne190102Ev
FNA:25,0,_ZNSt3__117bad_function_callC2B8ne190102Ev
FNL:26,72,72
FNA:26,0,_ZNSt3__117bad_function_callD0Ev
FNA:26,0,_ZNSt3__117bad_function_callD1Ev
FNA:26,0,_ZNSt3__117bad_function_callD2Ev
FNL:27,81,83
FNA:27,0,_ZNSt3__125__throw_bad_function_callB8ne190102Ev
FNL:28,946,946
FNA:28,11,_ZNSt3__18functionIFPN16BinarySearchTree4NodeEvEEC1IZNS1_11deserializeERNS_14basic_ifstreamIcNS_11char_traitsIcEEEEE3$_0vEET_
FNA:28,11,_ZNSt3__18functionIFPN16BinarySearchTree4NodeEvEEC2IZNS1_11deserializeERNS_14basic_ifstreamIcNS_11char_traitsIcEEEEE3$_0vEET_
FNL:29,980,980
FNA:29,11,_ZNSt3__18functionIFPN16BinarySearchTree4NodeEvEED1Ev
FNA:29,11,_ZNSt3__18functionIFPN16BinarySearchTree4NodeEvEED2Ev
FNL:30,988,989
FNA:30,187,_ZNKSt3__18functionIFPN16BinarySearchTree4NodeEvEEclEv
FNF:31
FNH:15
DA:63,0
DA:72,0
DA:81,0
DA:83,0
DA:107,11
DA:108,11
DA:152,0
DA:155,0
DA:160,0
DA:161,0
DA:163,0
DA:164,0
DA:166,22
DA:167,22
DA:169,187
DA:171,187
DA:184,11
DA:239,11
DA:240,0
DA:264,0
DA:266,0
DA:268,22
DA:282,0
DA:285,0
DA:287,0
DA:288,0
DA:289,0
DA:290,0
DA:293,0
DA:294,0
DA:295,0
DA:298,11
DA:299,11
DA:300,11
DA:303,0
DA:306,0
DA:307,0
DA:308,0
DA:309,0
DA:312,187
DA:313,187
DA:319,0
DA:320,0
DA:321,0
DA:322,0
DA:323,0
DA:326,0
DA:327,0
DA:352,22
DA:357,11
DA:358,11
DA:361,11
DA:368,11
DA:369,22
DA:372,11
DA:396,22
DA:397,11
DA:398,11
DA:399,0
DA:400,0
DA:401,22
DA:427,187
DA:428,187
DA:429,0
DA:430,187
DA:946,22
DA:980,22
DA:988,187
DA:989,187
LF:69
LH:32
end_of_record
TN:
SF:/Library/Developer/CommandLineTools/SDKs/MacOSX.sdk/usr/include/c++/v1/__iterator/ostreambuf_iterator.h
FNL:0,53,53
FNA:0,5357,_ZNSt3__119ostreambuf_iteratorIcNS_11char_traitsIcEEEC1B8ne190102ERNS_13basic_ostreamIcS2_EE
FNA:0,5357,_ZNSt3__119ostreambuf_iteratorIcNS_11char_traitsIcEEEC2B8ne190102ERNS_13basic_ostreamIcS2_EE
FNL:1,63,63
FNA:1,5357,_ZNKSt3__119ostreambuf_iteratorIcNS_11char_traitsIcEEE6failedB8ne190102Ev
FNF:2
FNH:2
DA:53,10714
DA:63,5357
LF:2
LH:2
end_of_record
TN:
SF:/Library/Developer/CommandLineTools/SDKs/MacOSX.sdk/usr/include/c++/v1/__iterator/wrap_iter.h
FNL:0,115,116
FNA:0,32329,_ZNSt3__1eqB8ne190102IPKcEEbRKNS_11__wrap_iterIT_EES7_
FNL:1,140,141
FNA:1,32329,_ZNSt3__1neB8ne190102IPKcEEbRKNS_11__wrap_iterIT_EES7_
FNL:2,51,51
FNA:2,26774,_ZNKSt3__111__wrap_iterIPKcEdeB8ne190102Ev
FNL:3,55,57
FNA:3,26774,_ZNSt3__111__wrap_iterIPKcEppB8ne190102Ev
FNL:4,94,94
FNA:4,64658,_ZNKSt3__111__wrap_iterIPKcE4baseB8ne190102Ev
FNL:5,97,97
FNA:5,11110,_ZNSt3__111__wrap_iterIPKcEC1B8ne190102ES2_
FNA:5,11110,_ZNSt3__111__wrap_iterIPKcEC2B8ne190102ES2_
FNF:6
FNH:6
DA:51,26774
DA:55,26774
DA:56,26774
DA:57,26774
DA:94,64658
DA:97,22220
DA:115,32329
DA:116,32329
DA:140,32329
DA:141,32329
LF:10
LH:10
end_of_record
TN:
SF:/Library/Developer/CommandLineTools/SDKs/MacOSX.sdk/usr/include/c++/v1/__locale
FNL:0,173
FNA:0,495,_ZNSt3__19use_facetB8ne190102INS_5ctypeIcEEEERKT_RKNS_6localeE
FNL:1,571
FNA:1,495,_ZNKSt3__15ctypeIcE5widenB8ne190102Ec
FNF:2
FNH:2
DA:173,495
DA:174,495
DA:571,495
LF:3
LH:3
end_of_record
TN:
SF:/Library/Developer/CommandLineTools/SDKs/MacOSX.sdk/usr/include/c++/v1/__memory/allocator.h
FNL:0,107,107
FNA:0,11,_ZNSt3__19allocatorIZN16BinarySearchTree11deserializeERNS_14basic_ifstreamIcNS_11char_traitsIcEEEEE3$_0EC1B8ne190102Ev
FNA:0,11,_ZNSt3__19allocatorIZN16BinarySearchTree11deserializeERNS_14basic_ifstreamIcNS_11char_traitsIcEEEEE3$_0EC2B8ne190102Ev
FNA:0,8855,_ZNSt3__19allocatorIcEC2B8ne190102Ev
FNL:1,110,110
FNA:1,11,_ZNSt3__19allocatorINS_10__function6__funcIZN16BinarySearchTree11deserializeERNS_14basic_ifstreamIcNS_11char_traitsIcEEEEE3$_0NS0_IS9_EEFPNS3_4NodeEvEEEEC1B8ne190102IS9_EERKNS0_IT_EE
FNA:1,11,_ZNSt3__19allocatorINS_10__function6__funcIZN16BinarySearchTree11deserializeERNS_14basic_ifstreamIcNS_11char_traitsIcEEEEE3$_0NS0_IS9_EEFPNS3_4NodeEvEEEEC2B8ne190102IS9_EERKNS0_IT_EE
FNA:1,11,_ZNSt3__19allocatorIZN16BinarySearchTree11deserializeERNS_14basic_ifstreamIcNS_11char_traitsIcEEEEE3$_0EC1B8ne190102INS_10__function6__funcIS7_S8_FPNS1_4NodeEvEEEEERKNS0_IT_EE
FNA:1,11,_ZNSt3__19allocatorIZN16BinarySearchTree11deserializeERNS_14basic_ifstreamIcNS_11char_traitsIcEEEEE3$_0EC2B8ne190102INS_10__function6__funcIS7_S8_FPNS1_4NodeEvEEEEERKNS0_IT_EE
FNL:2,112,118
FNA:2,0,_ZNSt3__19allocatorINS_10__function6__funcIZN16BinarySearchTree11deserializeERNS_14basic_ifstreamIcNS_11char_traitsIcEEEEE3$_0NS0_IS9_EEFPNS3_4NodeEvEEEE8allocateB8ne190102Em
FNL:3,128,134
FNA:3,0,_ZNSt3__19allocatorINS_10__function6__funcIZN16BinarySearchTree11deserializeERNS_14basic_ifstreamIcNS_11char_traitsIcEEEEE3$_0NS0_IS9_EEFPNS3_4NodeEvEEEE10deallocateB8ne190102EPSE_m
FNA:3,0,_ZNSt3__19allocatorIcE10deallocateB8ne190102EPcm
FNL:4,159,160
FNA:4,0,_ZNKSt3__19allocatorINS_10__function6__funcIZN16BinarySearchTree11deserializeERNS_14basic_ifstreamIcNS_11char_traitsIcEEEEE3$_0NS0_IS9_EEFPNS3_4NodeEvEEEE8max_sizeB8ne190102Ev
FNL:5,85,85
FNA:5,11,_ZNSt3__116__non_trivial_ifILb1ENS_9allocatorINS_10__function6__funcIZN16BinarySearchTree11deserializeERNS_14basic_ifstreamIcNS_11char_traitsIcEEEEE3$_0NS1_ISA_EEFPNS4_4NodeEvEEEEEEC2B8ne190102Ev
FNA:5,22,_ZNSt3__116__non_trivial_ifILb1ENS_9allocatorIZN16BinarySearchTree11deserializeERNS_14basic_ifstreamIcNS_11char_traitsIcEEEEE3$_0EEEC2B8ne190102Ev
FNA:5,8855,_ZNSt3__116__non_trivial_ifILb1ENS_9allocatorIcEEEC2B8ne190102Ev
FNF:6
FNH:3
DA:85,8888
DA:107,8877
DA:110,44
DA:112,0
DA:113,0
DA:114,0
DA:118,0
DA:128,0
DA:132,0
DA:134,0
DA:159,0
DA:160,0
LF:12
LH:3
end_of_record
TN:
SF:/Library/Developer/CommandLineTools/SDKs/MacOSX.sdk/usr/include/c++/v1/__memory/allocator_destructor.h
FNL:0,34,34
FNA:0,0,_ZNSt3__122__allocator_destructorINS_9allocatorINS_10__function6__funcIZN16BinarySearchTree11deserializeERNS_14basic_ifstreamIcNS_11char_traitsIcEEEEE3$_0NS1_ISA_EEFPNS4_4NodeEvEEEEEEC1B8ne190102ERSG_m
FNA:0,0,_ZNSt3__122__allocator_destructorINS_9allocatorINS_10__function6__funcIZN16BinarySearchTree11deserializeERNS_14basic_ifstreamIcNS_11char_traitsIcEEEEE3$_0NS1_ISA_EEFPNS4_4NodeEvEEEEEEC2B8ne190102ERSG_m
FNL:1,35,35
FNA:1,0,_ZNSt3__122__allocator_destructorINS_9allocatorINS_10__function6__funcIZN16BinarySearchTree11deserializeERNS_14basic_ifstreamIcNS_11char_traitsIcEEEEE3$_0NS1_ISA_EEFPNS4_4NodeEvEEEEEEclB8ne190102EPSF_
FNF:2
FNH:0
DA:34,0
DA:35,0
LF:2
LH:0
end_of_record
TN:
SF:/Library/Developer/CommandLineTools/SDKs/MacOSX.sdk/usr/include/c++/v1/__memory/allocator_traits.h
FNL:0,311,313
FNA:0,0,_ZNSt3__116allocator_traitsINS_9allocatorINS_10__function6__funcIZN16BinarySearchTree11deserializeERNS_14basic_ifstreamIcNS_11char_traitsIcEEEEE3$_0NS1_ISA_EEFPNS4_4NodeEvEEEEEE10deallocateB8ne190102ERSG_PSF_m
FNA:0,0,_ZNSt3__116allocator_traitsINS_9allocatorIcEEE10deallocateB8ne190102ERS2_Pcm
FNL:1,343,345
FNA:1,0,_ZNSt3__116allocator_traitsINS_9allocatorINS_10__function6__funcIZN16BinarySearchTree11deserializeERNS_14basic_ifstreamIcNS_11char_traitsIcEEEEE3$_0NS1_ISA_EEFPNS4_4NodeEvEEEEEE8max_sizeB8ne190102ISG_Li0EEEmRKSG_
FNF:2
FNH:0
DA:311,0
DA:312,0
DA:313,0
DA:343,0
DA:345,0
LF:5
LH:0
end_of_record
TN:
SF:/Library/Developer/CommandLineTools/SDKs/MacOSX.sdk/usr/include/c++/v1/__memory/compressed_pair.h
FNL:0,118,119
FNA:0,4829,_ZNSt3__117__compressed_pairINS_12basic_stringIcNS_11char_traitsIcEENS_9allocatorIcEEE5__repES5_EC1B8ne190102INS_16__value_init_tagENS_18__default_init_tagEEEOT_OT0_
FNA:0,4026,_ZNSt3__117__compressed_pairINS_12basic_stringIcNS_11char_traitsIcEENS_9allocatorIcEEE5__repES5_EC1B8ne190102INS_18__default_init_tagESA_EEOT_OT0_
FNA:0,4829,_ZNSt3__117__compressed_pairINS_12basic_stringIcNS_11char_traitsIcEENS_9allocatorIcEEE5__repES5_EC2B8ne190102INS_16__value_init_tagENS_18__default_init_tagEEEOT_OT0_
FNA:0,4026,_ZNSt3__117__compressed_pairINS_12basic_stringIcNS_11char_traitsIcEENS_9allocatorIcEEE5__repES5_EC2B8ne190102INS_18__default_init_tagESA_EEOT_OT0_
FNA:0,0,_ZNSt3__117__compressed_pairIPNS_10__function6__funcIZN16BinarySearchTree11deserializeERNS_14basic_ifstreamIcNS_11char_traitsIcEEEEE3$_0NS_9allocatorIS9_EEFPNS3_4NodeEvEEENS_22__allocator_destructorINSA_ISF_EEEEEC1B8ne190102IRSG_SJ_EEOT_OT0_
FNA:0,0,_ZNSt3__117__compressed_pairIPNS_10__function6__funcIZN16BinarySearchTree11deserializeERNS_14basic_ifstreamIcNS_11char_traitsIcEEEEE3$_0NS_9allocatorIS9_EEFPNS3_4NodeEvEEENS_22__allocator_destructorINSA_ISF_EEEEEC2B8ne190102IRSG_SJ_EEOT_OT0_
FNA:0,627,_ZNSt3__117__compressed_pairIPNS_12basic_stringIcNS_11char_traitsIcEENS_9allocatorIcEEEENS_14default_deleteIS6_EEEC1B8ne190102INS_16__value_init_tagESC_EEOT_OT0_
FNA:0,627,_ZNSt3__117__compressed_pairIPNS_12basic_stringIcNS_11char_traitsIcEENS_9allocatorIcEEEENS_14default_deleteIS6_EEEC2B8ne190102INS_16__value_init_tagESC_EEOT_OT0_
FNL:1,123,126
FNA:1,11,_ZNSt3__117__compressed_pairIZN16BinarySearchTree11deserializeERNS_14basic_ifstreamIcNS_11char_traitsIcEEEEE3$_0NS_9allocatorIS7_EEEC1B8ne190102IJOS7_EJOS9_EEENS_21piecewise_construct_tENS_5tupleIJDpT_EEENSF_IJDpT0_EEE
FNA:1,0,_ZNSt3__117__compressed_pairIZN16BinarySearchTree11deserializeERNS_14basic_ifstreamIcNS_11char_traitsIcEEEEE3$_0NS_9allocatorIS7_EEEC1B8ne190102IJRKS7_EJOS9_EEENS_21piecewise_construct_tENS_5tupleIJDpT_EEENSG_IJDpT0_EEE
FNA:1,0,_ZNSt3__117__compressed_pairIZN16BinarySearchTree11deserializeERNS_14basic_ifstreamIcNS_11char_traitsIcEEEEE3$_0NS_9allocatorIS7_EEEC1B8ne190102IJRKS7_EJRKS9_EEENS_21piecewise_construct_tENS_5tupleIJDpT_EEENSH_IJDpT0_EEE
FNA:1,11,_ZNSt3__117__compressed_pairIZN16BinarySearchTree11deserializeERNS_14basic_ifstreamIcNS_11char_traitsIcEEEEE3$_0NS_9allocatorIS7_EEEC2B8ne190102IJOS7_EJOS9_EEENS_21piecewise_construct_tENS_5tupleIJDpT_EEENSF_IJDpT0_EEE
FNA:1,0,_ZNSt3__117__compressed_pairIZN16BinarySearchTree11deserializeERNS_14basic_ifstreamIcNS_11char_traitsIcEEEEE3$_0NS_9allocatorIS7_EEEC2B8ne190102IJRKS7_EJOS9_EEENS_21piecewise_construct_tENS_5tupleIJDpT_EEENSG_IJDpT0_EEE
FNA:1,0,_ZNSt3__117__compressed_pairIZN16BinarySearchTree11deserializeERNS_14basic_ifstreamIcNS_11char_traitsIcEEEEE3$_0NS_9allocatorIS7_EEEC2B8ne190102IJRKS7_EJRKS9_EEENS_21piecewise_construct_tENS_5tupleIJDpT_EEENSH_IJDpT0_EEE
FNL:2,129,130
FNA:2,13442,_ZNSt3__117__compressed_pairINS_12basic_stringIcNS_11char_traitsIcEENS_9allocatorIcEEE5__repES5_E5firstB8ne190102Ev
FNA:2,0,_ZNSt3__117__compressed_pairIPNS_10__function6__funcIZN16BinarySearchTree11deserializeERNS_14basic_ifstreamIcNS_11char_traitsIcEEEEE3$_0NS_9allocatorIS9_EEFPNS3_4NodeEvEEENS_22__allocator_destructorINSA_ISF_EEEEE5firstB8ne190102Ev
FNA:2,3784,_ZNSt3__117__compressed_pairIPNS_12basic_stringIcNS_11char_traitsIcEENS_9allocatorIcEEEENS_14default_deleteIS6_EEE5firstB8ne190102Ev
FNA:2,0,_ZNSt3__117__compressed_pairIPNS_18basic_stringstreamIcNS_11char_traitsIcEENS_9allocatorIcEEEENS_14default_deleteIS6_EEE5firstB8ne190102Ev
FNA:2,187,_ZNSt3__117__compressed_pairIZN16BinarySearchTree11deserializeERNS_14basic_ifstreamIcNS_11char_traitsIcEEEEE3$_0NS_9allocatorIS7_EEE5firstB8ne190102Ev
FNL:3,133,134
FNA:3,2967624,_ZNKSt3__117__compressed_pairINS_12basic_stringIcNS_11char_traitsIcEENS_9allocatorIcEEE5__repES5_E5firstB8ne190102Ev
FNA:3,0,_ZNKSt3__117__compressed_pairIPNS_10__function6__funcIZN16BinarySearchTree11deserializeERNS_14basic_ifstreamIcNS_11char_traitsIcEEEEE3$_0NS_9allocatorIS9_EEFPNS3_4NodeEvEEENS_22__allocator_destructorINSA_ISF_EEEEE5firstB8ne190102Ev
FNA:3,0,_ZNKSt3__117__compressed_pairIPNS_12basic_stringIcNS_11char_traitsIcEENS_9allocatorIcEEEENS_14default_deleteIS6_EEE5firstB8ne190102Ev
FNA:3,0,_ZNKSt3__117__compressed_pairIZN16BinarySearchTree11deserializeERNS_14basic_ifstreamIcNS_11char_traitsIcEEEEE3$_0NS_9allocatorIS7_EEE5firstB8ne190102Ev
FNL:4,137,138
FNA:4,66,_ZNSt3__117__compressed_pairINS_12basic_stringIcNS_11char_traitsIcEENS_9allocatorIcEEE5__repES5_E6secondB8ne190102Ev
FNA:4,0,_ZNSt3__117__compressed_pairIPNS_10__function6__funcIZN16BinarySearchTree11deserializeERNS_14basic_ifstreamIcNS_11char_traitsIcEEEEE3$_0NS_9allocatorIS9_EEFPNS3_4NodeEvEEENS_22__allocator_destructorINSA_ISF_EEEEE6secondB8ne190102Ev
FNA:4,0,_ZNSt3__117__compressed_pairIPNS_12basic_stringIcNS_11char_traitsIcEENS_9allocatorIcEEEENS_14default_deleteIS6_EEE6secondB8ne190102Ev
FNA:4,0,_ZNSt3__117__compressed_pairIPNS_18basic_stringstreamIcNS_11char_traitsIcEENS_9allocatorIcEEEENS_14default_deleteIS6_EEE6secondB8ne190102Ev
FNL:5,141,142
FNA:5,0,_ZNKSt3__117__compressed_pairIZN16BinarySearchTree11deserializeERNS_14basic_ifstreamIcNS_11char_traitsIcEEEEE3$_0NS_9allocatorIS7_EEE6secondB8ne190102Ev
FNL:6,48,48
FNA:6,4026,_ZNSt3__122__compressed_pair_elemINS_12basic_stringIcNS_11char_traitsIcEENS_9allocatorIcEEE5__repELi0ELb0EEC2B8ne190102ENS_18__default_init_tagE
FNL:7,49,49
FNA:7,4829,_ZNSt3__122__compressed_pair_elemINS_12basic_stringIcNS_11char_traitsIcEENS_9allocatorIcEEE5__repELi0ELb0EEC2B8ne190102ENS_16__value_init_tagE
FNA:7,627,_ZNSt3__122__compressed_pair_elemIPNS_12basic_stringIcNS_11char_traitsIcEENS_9allocatorIcEEEELi0ELb0EEC2B8ne190102ENS_16__value_init_tagE
FNL:8,52,53
FNA:8,0,_ZNSt3__122__compressed_pair_elemINS_22__allocator_destructorINS_9allocatorINS_10__function6__funcIZN16BinarySearchTree11deserializeERNS_14basic_ifstreamIcNS_11char_traitsIcEEEEE3$_0NS2_ISB_EEFPNS5_4NodeEvEEEEEEELi1ELb0EEC2B8ne190102ISI_Li0EEEOT_
FNA:8,0,_ZNSt3__122__compressed_pair_elemIPNS_10__function6__funcIZN16BinarySearchTree11deserializeERNS_14basic_ifstreamIcNS_11char_traitsIcEEEEE3$_0NS_9allocatorIS9_EEFPNS3_4NodeEvEEELi0ELb0EEC2B8ne190102IRSG_Li0EEEOT_
FNL:9,57,59
FNA:9,11,_ZNSt3__122__compressed_pair_elemIZN16BinarySearchTree11deserializeERNS_14basic_ifstreamIcNS_11char_traitsIcEEEEE3$_0Li0ELb0EEC2B8ne190102IJOS7_EJLm0EEEENS_21piecewise_construct_tENS_5tupleIJDpT_EEENS_15__tuple_indicesIJXspT0_EEEE
FNA:9,0,_ZNSt3__122__compressed_pair_elemIZN16BinarySearchTree11deserializeERNS_14basic_ifstreamIcNS_11char_traitsIcEEEEE3$_0Li0ELb0EEC2B8ne190102IJRKS7_EJLm0EEEENS_21piecewise_construct_tENS_5tupleIJDpT_EEENS_15__tuple_indicesIJXspT0_EEEE
FNL:10,62,62
FNA:10,13442,_ZNSt3__122__compressed_pair_elemINS_12basic_stringIcNS_11char_traitsIcEENS_9allocatorIcEEE5__repELi0ELb0EE5__getB8ne190102Ev
FNA:10,0,_ZNSt3__122__compressed_pair_elemINS_22__allocator_destructorINS_9allocatorINS_10__function6__funcIZN16BinarySearchTree11deserializeERNS_14basic_ifstreamIcNS_11char_traitsIcEEEEE3$_0NS2_ISB_EEFPNS5_4NodeEvEEEEEEELi1ELb0EE5__getB8ne190102Ev
FNA:10,0,_ZNSt3__122__compressed_pair_elemIPNS_10__function6__funcIZN16BinarySearchTree11deserializeERNS_14basic_ifstreamIcNS_11char_traitsIcEEEEE3$_0NS_9allocatorIS9_EEFPNS3_4NodeEvEEELi0ELb0EE5__getB8ne190102Ev
FNA:10,3784,_ZNSt3__122__compressed_pair_elemIPNS_12basic_stringIcNS_11char_traitsIcEENS_9allocatorIcEEEELi0ELb0EE5__getB8ne190102Ev
FNA:10,0,_ZNSt3__122__compressed_pair_elemIPNS_18basic_stringstreamIcNS_11char_traitsIcEENS_9allocatorIcEEEELi0ELb0EE5__getB8ne190102Ev
FNA:10,187,_ZNSt3__122__compressed_pair_elemIZN16BinarySearchTree11deserializeERNS_14basic_ifstreamIcNS_11char_traitsIcEEEEE3$_0Li0ELb0EE5__getB8ne190102Ev
FNL:11,63,63
FNA:11,2967624,_ZNKSt3__122__compressed_pair_elemINS_12basic_stringIcNS_11char_traitsIcEENS_9allocatorIcEEE5__repELi0ELb0EE5__getB8ne190102Ev
FNA:11,0,_ZNKSt3__122__compressed_pair_elemIPNS_10__function6__funcIZN16BinarySearchTree11deserializeERNS_14basic_ifstreamIcNS_11char_traitsIcEEEEE3$_0NS_9allocatorIS9_EEFPNS3_4NodeEvEEELi0ELb0EE5__getB8ne190102Ev
FNA:11,0,_ZNKSt3__122__compressed_pair_elemIPNS_12basic_stringIcNS_11char_traitsIcEENS_9allocatorIcEEEELi0ELb0EE5__getB8ne190102Ev
FNA:11,0,_ZNKSt3__122__compressed_pair_elemIZN16BinarySearchTree11deserializeERNS_14basic_ifstreamIcNS_11char_traitsIcEEEEE3$_0Li0ELb0EE5__getB8ne190102Ev
FNL:12,77,77
FNA:12,8855,_ZNSt3__122__compressed_pair_elemINS_9allocatorIcEELi1ELb1EEC2B8ne190102ENS_18__default_init_tagE
FNL:13,78,78
FNA:13,627,_ZNSt3__122__compressed_pair_elemINS_14default_deleteINS_12basic_stringIcNS_11char_traitsIcEENS_9allocatorIcEEEEEELi1ELb1EEC2B8ne190102ENS_16__value_init_tagE
FNL:14,87,88
FNA:14,11,_ZNSt3__122__compressed_pair_elemINS_9allocatorIZN16BinarySearchTree11deserializeERNS_14basic_ifstreamIcNS_11char_traitsIcEEEEE3$_0EELi1ELb1EEC2B8ne190102IJOS9_EJLm0EEEENS_21piecewise_construct_tENS_5tupleIJDpT_EEENS_15__tuple_indicesIJXspT0_EEEE
FNA:14,0,_ZNSt3__122__compressed_pair_elemINS_9allocatorIZN16BinarySearchTree11deserializeERNS_14basic_ifstreamIcNS_11char_traitsIcEEEEE3$_0EELi1ELb1EEC2B8ne190102IJRKS9_EJLm0EEEENS_21piecewise_construct_tENS_5tupleIJDpT_EEENS_15__tuple_indicesIJXspT0_EEEE
FNL:15,91,91
FNA:15,0,_ZNSt3__122__compressed_pair_elemINS_14default_deleteINS_12basic_stringIcNS_11char_traitsIcEENS_9allocatorIcEEEEEELi1ELb1EE5__getB8ne190102Ev
FNA:15,0,_ZNSt3__122__compressed_pair_elemINS_14default_deleteINS_18basic_stringstreamIcNS_11char_traitsIcEENS_9allocatorIcEEEEEELi1ELb1EE5__getB8ne190102Ev
FNA:15,66,_ZNSt3__122__compressed_pair_elemINS_9allocatorIcEELi1ELb1EE5__getB8ne190102Ev
FNL:16,92,92
FNA:16,0,_ZNKSt3__122__compressed_pair_elemINS_9allocatorIZN16BinarySearchTree11deserializeERNS_14basic_ifstreamIcNS_11char_traitsIcEEEEE3$_0EELi1ELb1EE5__getB8ne190102Ev
FNF:17
FNH:14
DA:48,4026
DA:49,5456
DA:52,0
DA:53,0
DA:57,11
DA:59,11
DA:62,17413
DA:63,2967624
DA:77,8855
DA:78,627
DA:87,11
DA:88,11
DA:91,66
DA:92,0
DA:118,18964
DA:119,18964
DA:123,22
DA:125,11
DA:126,22
DA:129,17413
DA:130,17413
DA:133,2967624
DA:134,2967624
DA:137,66
DA:138,66
DA:141,0
DA:142,0
LF:27
LH:22
end_of_record
TN:
SF:/Library/Developer/CommandLineTools/SDKs/MacOSX.sdk/usr/include/c++/v1/__memory/pointer_traits.h
FNL:0,171,172
FNA:0,730697,_ZNSt3__114pointer_traitsIPKcE10pointer_toB8ne190102ERS1_
FNA:0,33,_ZNSt3__114pointer_traitsIPcE10pointer_toB8ne190102ERc
FNL:1,190,192
FNA:1,719587,_ZNSt3__112__to_addressB8ne190102IKcEEPT_S3_
FNA:1,0,_ZNSt3__112__to_addressB8ne190102IcEEPT_S2_
FNF:2
FNH:2
DA:171,730730
DA:172,730730
DA:190,719587
DA:192,719587
LF:4
LH:4
end_of_record
TN:
SF:/Library/Developer/CommandLineTools/SDKs/MacOSX.sdk/usr/include/c++/v1/__memory/unique_ptr.h
FNL:0,193,193
FNA:0,627,_ZNSt3__110unique_ptrINS_12basic_stringIcNS_11char_traitsIcEENS_9allocatorIcEEEENS_14default_deleteIS6_EEEC1B8ne190102ILb1EvEEv
FNA:0,627,_ZNSt3__110unique_ptrINS_12basic_stringIcNS_11char_traitsIcEENS_9allocatorIcEEEENS_14default_deleteIS6_EEEC2B8ne190102ILb1EvEEv
FNL:1,208,211
FNA:1,0,_ZNSt3__110unique_ptrINS_10__function6__funcIZN16BinarySearchTree11deserializeERNS_14basic_ifstreamIcNS_11char_traitsIcEEEEE3$_0NS_9allocatorIS9_EEFPNS3_4NodeEvEEENS_22__allocator_destructorINSA_ISF_EEEEEC1B8ne190102ILb1EvEEPSF_NS_16__dependent_typeINS_27__unique_ptr_deleter_sfinaeISI_EEXT_EE20__good_rval_ref_typeE
FNA:1,0,_ZNSt3__110unique_ptrINS_10__function6__funcIZN16BinarySearchTree11deserializeERNS_14basic_ifstreamIcNS_11char_traitsIcEEEEE3$_0NS_9allocatorIS9_EEFPNS3_4NodeEvEEENS_22__allocator_destructorINSA_ISF_EEEEEC2B8ne190102ILb1EvEEPSF_NS_16__dependent_typeINS_27__unique_ptr_deleter_sfinaeISI_EEXT_EE20__good_rval_ref_typeE
FNL:2,262,262
FNA:2,0,_ZNSt3__110unique_ptrINS_10__function6__funcIZN16BinarySearchTree11deserializeERNS_14basic_ifstreamIcNS_11char_traitsIcEEEEE3$_0NS_9allocatorIS9_EEFPNS3_4NodeEvEEENS_22__allocator_destructorINSA_ISF_EEEEED1B8ne190102Ev
FNA:2,0,_ZNSt3__110unique_ptrINS_10__function6__funcIZN16BinarySearchTree11deserializeERNS_14basic_ifstreamIcNS_11char_traitsIcEEEEE3$_0NS_9allocatorIS9_EEFPNS3_4NodeEvEEENS_22__allocator_destructorINSA_ISF_EEEEED2B8ne190102Ev
FNA:2,1892,_ZNSt3__110unique_ptrINS_12basic_stringIcNS_11char_traitsIcEENS_9allocatorIcEEEENS_14default_deleteIS6_EEED1B8ne190102Ev
FNA:2,1892,_ZNSt3__110unique_ptrINS_12basic_stringIcNS_11char_traitsIcEENS_9allocatorIcEEEENS_14default_deleteIS6_EEED2B8ne190102Ev
FNA:2,0,_ZNSt3__110unique_ptrINS_18basic_stringstreamIcNS_11char_traitsIcEENS_9allocatorIcEEEENS_14default_deleteIS6_EEED1B8ne190102Ev
FNA:2,0,_ZNSt3__110unique_ptrINS_18basic_stringstreamIcNS_11char_traitsIcEENS_9allocatorIcEEEENS_14default_deleteIS6_EEED2B8ne190102Ev
FNL:3,273,273
FNA:3,0,_ZNKSt3__110unique_ptrINS_12basic_stringIcNS_11char_traitsIcEENS_9allocatorIcEEEENS_14default_deleteIS6_EEEptB8ne190102Ev
FNL:4,274,274
FNA:4,0,_ZNKSt3__110unique_ptrINS_10__function6__funcIZN16BinarySearchTree11deserializeERNS_14basic_ifstreamIcNS_11char_traitsIcEEEEE3$_0NS_9allocatorIS9_EEFPNS3_4NodeEvEEENS_22__allocator_destructorINSA_ISF_EEEEE3getB8ne190102Ev
FNL:5,279,280
FNA:5,0,_ZNKSt3__110unique_ptrINS_12basic_stringIcNS_11char_traitsIcEENS_9allocatorIcEEEENS_14default_deleteIS6_EEEcvbB8ne190102Ev
FNL:6,283,286
FNA:6,0,_ZNSt3__110unique_ptrINS_10__function6__funcIZN16BinarySearchTree11deserializeERNS_14basic_ifstreamIcNS_11char_traitsIcEEEEE3$_0NS_9allocatorIS9_EEFPNS3_4NodeEvEEENS_22__allocator_destructorINSA_ISF_EEEEE7releaseB8ne190102Ev
FNL:7,289,294
FNA:7,0,_ZNSt3__110unique_ptrINS_10__function6__funcIZN16BinarySearchTree11deserializeERNS_14basic_ifstreamIcNS_11char_traitsIcEEEEE3$_0NS_9allocatorIS9_EEFPNS3_4NodeEvEEENS_22__allocator_destructorINSA_ISF_EEEEE5resetB8ne190102EPSF_
FNA:7,1892,_ZNSt3__110unique_ptrINS_12basic_stringIcNS_11char_traitsIcEENS_9allocatorIcEEEENS_14default_deleteIS6_EEE5resetB8ne190102EPS6_
FNA:7,0,_ZNSt3__110unique_ptrINS_18basic_stringstreamIcNS_11char_traitsIcEENS_9allocatorIcEEEENS_14default_deleteIS6_EEE5resetB8ne190102EPS6_
FNL:8,554,555
FNA:8,0,_ZNSt3__1neB8ne190102INS_12basic_stringIcNS_11char_traitsIcEENS_9allocatorIcEEEENS_14default_deleteIS6_EEEEbRKNS_10unique_ptrIT_T0_EEDn
FNL:9,78,82
FNA:9,0,_ZNKSt3__114default_deleteINS_12basic_stringIcNS_11char_traitsIcEENS_9allocatorIcEEEEEclB8ne190102EPS6_
FNA:9,0,_ZNKSt3__114default_deleteINS_18basic_stringstreamIcNS_11char_traitsIcEENS_9allocatorIcEEEEEclB8ne190102EPS6_
FNF:10
FNH:3
DA:78,0
DA:81,0
DA:82,0
DA:193,1254
DA:208,0
DA:209,0
DA:211,0
DA:262,3784
DA:273,0
DA:274,0
DA:279,0
DA:280,0
DA:283,0
DA:284,0
DA:285,0
DA:286,0
DA:289,1892
DA:290,1892
DA:291,1892
DA:292,1892
DA:293,0
DA:294,1892
DA:554,0
DA:555,0
LF:24
LH:7
end_of_record
TN:
SF:/Library/Developer/CommandLineTools/SDKs/MacOSX.sdk/usr/include/c++/v1/__ostream/basic_ostream.h
FNL:0,127,127
FNA:0,869,_ZNSt3__113basic_ostreamIcNS_11char_traitsIcEEEC2B8ne190102Ev
FNL:1,141,141
FNA:1,5357,_ZNKSt3__113basic_ostreamIcNS_11char_traitsIcEEE6sentrycvbB8ne190102Ev
FNL:2,499,522
FNA:2,5357,_ZNSt3__124__put_character_sequenceB8ne190102IcNS_11char_traitsIcEEEERNS_13basic_ostreamIT_T0_EES7_PKS4_m
FNL:3,50,52
FNA:3,77,_ZNSt3__113basic_ostreamIcNS_11char_traitsIcEEEC2B8ne190102EPNS_15basic_streambufIcS2_EE
FNL:4,618,619
FNA:4,0,_ZNSt3__1lsB8ne190102INS_11char_traitsIcEEEERNS_13basic_ostreamIcT_EES6_PKc
FNF:5
FNH:4
DA:50,77
DA:51,77
DA:52,77
DA:127,869
DA:141,5357
DA:499,5357
DA:503,5357
DA:504,5357
DA:506,5357
DA:507,5357
DA:508,5357
DA:509,5357
DA:510,5357
DA:511,5357
DA:512,5357
DA:513,5357
DA:514,0
DA:515,5357
DA:517,5357
DA:518,0
DA:519,0
DA:521,5357
DA:522,0
DA:618,0
DA:619,0
LF:25
LH:19
end_of_record
TN:
SF:/Library/Developer/CommandLineTools/SDKs/MacOSX.sdk/usr/include/c++/v1/__string/char_traits.h
FNL:0,191,193
FNA:0,33,_ZNSt3__111char_traitsIcE6assignB8ne190102ERcRKc
FNL:1,206,224
FNA:1,359656,_ZNSt3__111char_traitsIcE7compareB8ne190102EPKcS3_m
FNL:2,228,229
FNA:2,4543,_ZNSt3__111char_traitsIcE6lengthB8ne190102EPKc
FNL:3,233,237
FNA:3,0,_ZNSt3__111char_traitsIcE4findB8ne190102EPKcmRS2_
FNL:4,270,270
FNA:4,6380,_ZNSt3__111char_traitsIcE3eofB8ne190102Ev
FNL:5,466,501
FNA:5,0,_ZNSt3__118__search_substringB8ne190102IcNS_11char_traitsIcEEEEPKT_S5_S5_S5_S5_
FNL:6,505,517
FNA:6,0,_ZNSt3__110__str_findB8ne190102IcmNS_11char_traitsIcEELm18446744073709551615EEET0_PKT_S3_S6_S3_S3_
FNF:7
FNH:4
DA:191,33
DA:192,33
DA:193,33
DA:206,359656
DA:224,359656
DA:228,4543
DA:229,4543
DA:233,0
DA:234,0
DA:235,0
DA:236,0
DA:237,0
DA:270,6380
DA:466,0
DA:470,0
DA:471,0
DA:472,0
DA:474,0
DA:475,0
DA:476,0
DA:479,0
DA:480,0
DA:481,0
DA:483,0
DA:484,0
DA:487,0
DA:488,0
DA:489,0
DA:496,0
DA:497,0
DA:499,0
DA:501,0
DA:505,0
DA:506,0
DA:507,0
DA:509,0
DA:510,0
DA:512,0
DA:514,0
DA:515,0
DA:516,0
DA:517,0
LF:42
LH:8
end_of_record
TN:
SF:/Library/Developer/CommandLineTools/SDKs/MacOSX.sdk/usr/include/c++/v1/__string/constexpr_c_functions.h
FNL:0,133,153
FNA:0,0,_ZNSt3__118__constexpr_memchrB8ne190102IKccEEPT_S3_T0_m
FNL:1,52,66
FNA:1,4543,_ZNSt3__118__constexpr_strlenB8ne190102IcEEmPKT_
FNF:2
FNH:1
DA:52,4543
DA:66,4543
DA:133,0
DA:151,0
DA:152,0
DA:153,0
LF:6
LH:2
end_of_record
TN:
SF:/Library/Developer/CommandLineTools/SDKs/MacOSX.sdk/usr/include/c++/v1/__type_traits/invoke.h
FNL:0,147,149
FNA:0,187,_ZNSt3__18__invokeB8ne190102IRZN16BinarySearchTree11deserializeERNS_14basic_ifstreamIcNS_11char_traitsIcEEEEE3$_0JEEEDTclclsr3stdE7declvalIT_EEspclsr3stdE7declvalIT0_EEEEOS9_DpOSA_
FNL:1,215,216
FNA:1,187,_ZNSt3__128__invoke_void_return_wrapperIPN16BinarySearchTree4NodeELb0EE6__callB8ne190102IJRZNS1_11deserializeERNS_14basic_ifstreamIcNS_11char_traitsIcEEEEE3$_0EEES3_DpOT_
FNF:2
FNH:2
DA:147,187
DA:149,187
DA:215,187
DA:216,187
LF:4
LH:4
end_of_record
TN:
SF:/Library/Developer/CommandLineTools/SDKs/MacOSX.sdk/usr/include/c++/v1/fstream
FNL:0,1142
FNA:0,77,_ZNSt3__114basic_ifstreamIcNS_11char_traitsIcEEEC1EPKcj
FNL:1,1233
FNA:1,77,_ZNSt3__114basic_ifstreamIcNS_11char_traitsIcEEE5closeEv
FNL:2,1299
FNA:2,77,_ZNSt3__114basic_ofstreamIcNS_11char_traitsIcEEEC1EPKcj
FNL:3,1390
FNA:3,77,_ZNSt3__114basic_ofstreamIcNS_11char_traitsIcEEE5closeEv
FNL:4,1549
FNA:4,77,_ZNSt3__114basic_ifstreamIcNS_11char_traitsIcEEED1Ev
FNA:4,77,_ZNSt3__114basic_ifstreamIcNS_11char_traitsIcEEED2Ev
FNL:5,1550
FNA:5,77,_ZNSt3__114basic_ofstreamIcNS_11char_traitsIcEEED1Ev
FNA:5,77,_ZNSt3__114basic_ofstreamIcNS_11char_traitsIcEEED2Ev
FNF:6
FNH:6
DA:1142,154
DA:1143,154
DA:1144,77
DA:1145,0
DA:1146,77
DA:1233,77
DA:1234,77
DA:1235,0
DA:1236,77
DA:1299,154
DA:1300,154
DA:1301,77
DA:1302,0
DA:1303,77
DA:1390,77
DA:1391,77
DA:1392,0
DA:1393,77
LF:18
LH:14
end_of_record
TN:
SF:/Library/Developer/CommandLineTools/SDKs/MacOSX.sdk/usr/include/c++/v1/ios
FNL:0,360
FNA:0,1023,_ZNSt3__18ios_baseC2B8ne190102Ev
FNL:1,370
FNA:1,5357,_ZNKSt3__18ios_base5rdbufB8ne190102Ev
FNL:2,458
FNA:2,5357,_ZNKSt3__18ios_base5flagsB8ne190102Ev
FNL:3,493
FNA:3,5357,_ZNKSt3__18ios_base5widthB8ne190102Ev
FNL:4,495
FNA:4,5357,_ZNSt3__18ios_base5widthB8ne190102El
FNL:5,505
FNA:5,0,_ZNSt3__18ios_base8setstateB8ne190102Ej
FNL:6,542
FNA:6,1023,_ZNSt3__118_SentinelValueFillINS_11char_traitsIcEEE6__initB8ne190102Ev
FNL:7,543
FNA:7,495,_ZNSt3__118_SentinelValueFillINS_11char_traitsIcEEEaSB8ne190102Ei
FNL:8,547
FNA:8,5357,_ZNKSt3__118_SentinelValueFillINS_11char_traitsIcEEE8__is_setB8ne190102Ev
FNL:9,548
FNA:9,5357,_ZNKSt3__118_SentinelValueFillINS_11char_traitsIcEEE5__getB8ne190102Ev
FNL:10,579
FNA:10,0,_ZNSt3__19basic_iosIcNS_11char_traitsIcEEE8setstateB8ne190102Ej
FNL:11,610
FNA:11,1023,_ZNSt3__19basic_iosIcNS_11char_traitsIcEEEC2B8ne190102Ev
FNL:12,641
FNA:12,1023,_ZNSt3__19basic_iosIcNS_11char_traitsIcEEE4initB8ne190102EPNS_15basic_streambufIcS2_EE
FNL:13,661
FNA:13,5357,_ZNKSt3__19basic_iosIcNS_11char_traitsIcEEE5rdbufB8ne190102Ev
FNL:14,688
FNA:14,495,_ZNKSt3__19basic_iosIcNS_11char_traitsIcEEE5widenB8ne190102Ec
FNL:15,693
FNA:15,5357,_ZNKSt3__19basic_iosIcNS_11char_traitsIcEEE4fillB8ne190102Ev
FNF:16
FNH:14
DA:360,1023
DA:367,1023
DA:370,5357
DA:458,5357
DA:493,5357
DA:495,5357
DA:496,5357
DA:497,5357
DA:498,5357
DA:505,0
DA:542,1023
DA:543,495
DA:544,495
DA:545,495
DA:547,5357
DA:548,5357
DA:579,0
DA:610,1023
DA:613,1023
DA:641,1023
DA:642,1023
DA:643,1023
DA:644,1023
DA:645,1023
DA:661,5357
DA:662,5357
DA:688,495
DA:689,495
DA:690,0
DA:693,5357
DA:694,5357
DA:695,495
DA:696,5357
LF:33
LH:30
end_of_record
TN:
SF:/Library/Developer/CommandLineTools/SDKs/MacOSX.sdk/usr/include/c++/v1/istream
FNL:0,1175
FNA:0,869,_ZNSt3__114basic_iostreamIcNS_11char_traitsIcEEEC2B8ne190102EPNS_15basic_streambufIcS2_EE
FNL:1,202
FNA:1,946,_ZNSt3__113basic_istreamIcNS_11char_traitsIcEEEC2B8ne190102EPNS_15basic_streambufIcS2_EE
FNF:2
FNH:2
DA:202,946
DA:203,946
DA:204,946
DA:205,946
DA:1175,1738
DA:1176,869
LF:6
LH:6
end_of_record
TN:
SF:/Library/Developer/CommandLineTools/SDKs/MacOSX.sdk/usr/include/c++/v1/locale
FNL:0,1268
FNA:0,5357,_ZNSt3__116__pad_and_outputB8ne190102IcNS_11char_traitsIcEEEENS_19ostreambuf_iteratorIT_T0_EES6_PKS4_S8_S8_RNS_8ios_baseES4_
FNF:1
FNH:1
DA:1268,5357
DA:1275,5357
DA:1276,0
DA:1277,5357
DA:1278,5357
DA:1279,5357
DA:1280,0
DA:1282,5357
DA:1283,5357
DA:1284,5357
DA:1285,0
DA:1286,0
DA:1287,0
DA:1289,0
DA:1290,5357
DA:1291,0
DA:1292,0
DA:1293,0
DA:1294,0
DA:1296,0
DA:1297,5357
DA:1298,5357
DA:1299,5357
DA:1300,0
DA:1301,0
DA:1303,5357
DA:1304,5357
DA:1305,5357
DA:1306,5357
LF:29
LH:16
end_of_record
TN:
SF:/Library/Developer/CommandLineTools/SDKs/MacOSX.sdk/usr/include/c++/v1/new
FNL:0,172
FNA:0,0,_ZSt28__throw_bad_array_new_lengthB8ne190102v
FNL:1,286
FNA:1,0,_ZNSt3__124__is_overaligned_for_newB8ne190102Em
FNL:2,295
FNA:2,0,_ZNSt3__121__libcpp_operator_newB8ne190102IJmEEEPvDpT_
FNA:2,0,_ZNSt3__121__libcpp_operator_newB8ne190102IJmSt11align_val_tEEEPvDpT_
FNL:3,304
FNA:3,0,_ZNSt3__124__libcpp_operator_deleteB8ne190102IJPvEEEvDpT_
FNA:3,0,_ZNSt3__124__libcpp_operator_deleteB8ne190102IJPvSt11align_val_tEEEvDpT_
FNL:4,312
FNA:4,0,_ZNSt3__117__libcpp_allocateB8ne190102Emm
FNL:5,325
FNA:5,0,_ZNSt3__127__do_deallocate_handle_sizeB8ne190102IJEEEvPvmDpT_
FNA:5,0,_ZNSt3__127__do_deallocate_handle_sizeB8ne190102IJSt11align_val_tEEEvPvmDpT_
FNL:6,334
FNA:6,0,_ZNSt3__119__libcpp_deallocateB8ne190102EPvmm
FNF:7
FNH:0
DA:172,0
DA:174,0
DA:286,0
DA:288,0
DA:295,0
DA:297,0
DA:304,0
DA:306,0
DA:310,0
DA:312,0
DA:314,0
DA:315,0
DA:316,0
DA:321,0
DA:322,0
DA:325,0
DA:328,0
DA:334,0
DA:339,0
DA:340,0
DA:341,0
DA:343,0
DA:346,0
LF:23
LH:0
end_of_record
TN:
SF:/Library/Developer/CommandLineTools/SDKs/MacOSX.sdk/usr/include/c++/v1/sstream
FNL:0,1139
FNA:0,869,_ZNSt3__118basic_stringstreamIcNS_11char_traitsIcEENS_9allocatorIcEEEC1B8ne190102Ev
FNL:1,1217
FNA:1,0,_ZNKSt3__118basic_stringstreamIcNS_11char_traitsIcEENS_9allocatorIcEEE3strB8ne190102Ev
FNL:2,1261
FNA:2,0,_ZNSt3__115basic_stringbufIcNS_11char_traitsIcEENS_9allocatorIcEEED1Ev
FNA:2,0,_ZNSt3__115basic_stringbufIcNS_11char_traitsIcEENS_9allocatorIcEEED2Ev
FNL:3,1262
FNA:3,0,_ZNSt3__118basic_stringstreamIcNS_11char_traitsIcEENS_9allocatorIcEEED1Ev
FNA:3,0,_ZNSt3__118basic_stringstreamIcNS_11char_traitsIcEENS_9allocatorIcEEED2Ev
FNL:4,359
FNA:4,869,_ZNSt3__115basic_stringbufIcNS_11char_traitsIcEENS_9allocatorIcEEEC1B8ne190102Ej
FNA:4,869,_ZNSt3__115basic_stringbufIcNS_11char_traitsIcEENS_9allocatorIcEEEC2B8ne190102Ej
FNF:5
FNH:2
DA:359,1738
DA:1139,1738
DA:1140,1738
DA:1217,0
LF:4
LH:3
end_of_record
TN:
SF:/Library/Developer/CommandLineTools/SDKs/MacOSX.sdk/usr/include/c++/v1/stdexcept
FNL:0,163
FNA:0,22,_ZNSt12out_of_rangeC1B8ne190102EPKc
FNA:0,22,_ZNSt12out_of_rangeC2B8ne190102EPKc
FNF:1
FNH:1
DA:163,44
LF:1
LH:1
end_of_record
TN:
SF:/Library/Developer/CommandLineTools/SDKs/MacOSX.sdk/usr/include/c++/v1/streambuf
FNL:0,221
FNA:0,5357,_ZNSt3__115basic_streambufIcNS_11char_traitsIcEEE5sputnB8ne190102EPKcl
FNF:1
FNH:1
DA:221,5357
DA:222,5357
LF:2
LH:2
end_of_record
TN:
SF:/Library/Developer/CommandLineTools/SDKs/MacOSX.sdk/usr/include/c++/v1/string
FNL:0,1020
FNA:0,13277,_ZNSt3__112basic_stringIcNS_11char_traitsIcEENS_9allocatorIcEEEC1B8ne190102EOS5_
FNA:0,13277,_ZNSt3__112basic_stringIcNS_11char_traitsIcEENS_9allocatorIcEEEC2B8ne190102EOS5_
FNL:1,1029
FNA:1,13277,_ZZNSt3__112basic_stringIcNS_11char_traitsIcEENS_9allocatorIcEEEC1B8ne190102EOS5_ENKUlRS5_E_clES7_
FNL:2,1059
FNA:2,3707,_ZNSt3__112basic_stringIcNS_11char_traitsIcEENS_9allocatorIcEEEC1B8ne190102ILi0EEEPKc
FNA:2,4026,_ZNSt3__112basic_stringIcNS_11char_traitsIcEENS_9allocatorIcEEEC2B8ne190102ILi0EEEPKc
FNL:3,1089
FNA:3,0,_ZNSt3__112basic_stringIcNS_11char_traitsIcEENS_9allocatorIcEEEC1B8ne190102Emc
FNA:3,0,_ZNSt3__112basic_stringIcNS_11char_traitsIcEENS_9allocatorIcEEEC2B8ne190102Emc
FNL:4,1216
FNA:4,358215,_ZNKSt3__112basic_stringIcNS_11char_traitsIcEENS_9allocatorIcEEEcvNS_17basic_string_viewIcS2_EEB8ne190102Ev
FNL:5,1234
FNA:5,33,_ZNSt3__112basic_stringIcNS_11char_traitsIcEENS_9allocatorIcEEEaSB8ne190102EOS5_
FNL:6,1243
FNA:6,0,_ZNSt3__112basic_stringIcNS_11char_traitsIcEENS_9allocatorIcEEEaSB8ne190102EPKc
FNL:7,1254
FNA:7,5555,_ZNKSt3__112basic_stringIcNS_11char_traitsIcEENS_9allocatorIcEEE5beginB8ne190102Ev
FNL:8,1260
FNA:8,5555,_ZNKSt3__112basic_stringIcNS_11char_traitsIcEENS_9allocatorIcEEE3endB8ne190102Ev
FNL:9,1284
FNA:9,739772,_ZNKSt3__112basic_stringIcNS_11char_traitsIcEENS_9allocatorIcEEE4sizeB8ne190102Ev
FNL:10,1287
FNA:10,275,_ZNKSt3__112basic_stringIcNS_11char_traitsIcEENS_9allocatorIcEEE6lengthB8ne190102Ev
FNL:11,1347
FNA:11,0,_ZNSt3__112basic_stringIcNS_11char_traitsIcEENS_9allocatorIcEEEpLB8ne190102ERKS5_
FNL:12,1361
FNA:12,0,_ZNSt3__112basic_stringIcNS_11char_traitsIcEENS_9allocatorIcEEEpLB8ne190102EPKc
FNL:13,1376
FNA:13,0,_ZNSt3__112basic_stringIcNS_11char_traitsIcEENS_9allocatorIcEEE6appendB8ne190102ERKS5_
FNL:14,1703
FNA:14,275,_ZNKSt3__112basic_stringIcNS_11char_traitsIcEENS_9allocatorIcEEE5c_strB8ne190102Ev
FNL:15,1704
FNA:15,719587,_ZNKSt3__112basic_stringIcNS_11char_traitsIcEENS_9allocatorIcEEE4dataB8ne190102Ev
FNL:16,1708
FNA:16,0,_ZNSt3__112basic_stringIcNS_11char_traitsIcEENS_9allocatorIcEEE4dataB8ne190102Ev
FNL:17,1877
FNA:17,1497122,_ZNKSt3__112basic_stringIcNS_11char_traitsIcEENS_9allocatorIcEEE9__is_longB8ne190102Ev
FNL:18,1950
FNA:18,66,_ZNSt3__112basic_stringIcNS_11char_traitsIcEENS_9allocatorIcEEE7__allocB8ne190102Ev
FNL:19,1954
FNA:19,33,_ZNSt3__112basic_stringIcNS_11char_traitsIcEENS_9allocatorIcEEE16__set_short_sizeB8ne190102Em
FNL:20,1961
FNA:20,739805,_ZNKSt3__112basic_stringIcNS_11char_traitsIcEENS_9allocatorIcEEE16__get_short_sizeB8ne190102Ev
FNL:21,1969
FNA:21,0,_ZNKSt3__112basic_stringIcNS_11char_traitsIcEENS_9allocatorIcEEE15__get_long_sizeB8ne190102Ev
FNL:22,1984
FNA:22,0,_ZNKSt3__112basic_stringIcNS_11char_traitsIcEENS_9allocatorIcEEE14__get_long_capB8ne190102Ev
FNL:23,1991
FNA:23,0,_ZNSt3__112basic_stringIcNS_11char_traitsIcEENS_9allocatorIcEEE18__get_long_pointerB8ne190102Ev
FNL:24,1994
FNA:24,0,_ZNKSt3__112basic_stringIcNS_11char_traitsIcEENS_9allocatorIcEEE18__get_long_pointerB8ne190102Ev
FNL:25,1998
FNA:25,33,_ZNSt3__112basic_stringIcNS_11char_traitsIcEENS_9allocatorIcEEE19__get_short_pointerB8ne190102Ev
FNL:26,2002
FNA:26,730697,_ZNKSt3__112basic_stringIcNS_11char_traitsIcEENS_9allocatorIcEEE19__get_short_pointerB8ne190102Ev
FNL:27,2005
FNA:27,0,_ZNSt3__112basic_stringIcNS_11char_traitsIcEENS_9allocatorIcEEE13__get_pointerB8ne190102Ev
FNL:28,2008
FNA:28,730697,_ZNKSt3__112basic_stringIcNS_11char_traitsIcEENS_9allocatorIcEEE13__get_pointerB8ne190102Ev
FNL:29,2027
FNA:29,31383,_ZNKSt3__112basic_stringIcNS_11char_traitsIcEENS_9allocatorIcEEE14__annotate_newB8ne190102Em
FNL:30,2035
FNA:30,13277,_ZNKSt3__112basic_stringIcNS_11char_traitsIcEENS_9allocatorIcEEE17__annotate_deleteB8ne190102Ev
FNL:31,2050
FNA:31,33,_ZNKSt3__112basic_stringIcNS_11char_traitsIcEENS_9allocatorIcEEE17__annotate_shrinkB8ne190102Em
FNL:32,2185
FNA:32,33,_ZNSt3__112basic_stringIcNS_11char_traitsIcEENS_9allocatorIcEEE19__move_assign_allocB8ne190102ERS5_
FNL:33,2192
FNA:33,33,_ZNSt3__112basic_stringIcNS_11char_traitsIcEENS_9allocatorIcEEE19__move_assign_allocB8ne190102ERS5_NS_17integral_constantIbLb1EEE
FNL:34,2685
FNA:34,33,_ZNSt3__112basic_stringIcNS_11char_traitsIcEENS_9allocatorIcEEE13__move_assignB8ne190102ERS5_NS_17integral_constantIbLb1EEE
FNL:35,3493
FNA:35,0,_ZNKSt3__112basic_stringIcNS_11char_traitsIcEENS_9allocatorIcEEE4findB8ne190102EPKcm
FNL:36,3709
FNA:36,358215,_ZNKSt3__112basic_stringIcNS_11char_traitsIcEENS_9allocatorIcEEE7compareINS_17basic_string_viewIcS2_EELi0EEEiRKT_
FNL:37,3725
FNA:37,358215,_ZNKSt3__112basic_stringIcNS_11char_traitsIcEENS_9allocatorIcEEE7compareB8ne190102ERKS5_
FNL:38,3835
FNA:38,1859,_ZNSt3__1eqB8ne190102INS_9allocatorIcEEEEbRKNS_12basic_stringIcNS_11char_traitsIcEET_EES9_
FNL:39,3858
FNA:39,517,_ZNSt3__1eqB8ne190102IcNS_11char_traitsIcEENS_9allocatorIcEEEEbRKNS_12basic_stringIT_T0_T1_EEPKS6_
FNL:40,3908
FNA:40,358215,_ZNSt3__1ltB8ne190102IcNS_11char_traitsIcEENS_9allocatorIcEEEEbRKNS_12basic_stringIT_T0_T1_EESB_
FNL:41,3928
FNA:41,169433,_ZNSt3__1gtB8ne190102IcNS_11char_traitsIcEENS_9allocatorIcEEEEbRKNS_12basic_stringIT_T0_T1_EESB_
FNL:42,4089
FNA:42,13200,_ZNSt3__1plB8ne190102IcNS_11char_traitsIcEENS_9allocatorIcEEEENS_12basic_stringIT_T0_T1_EEPKS6_OS9_
FNL:43,969
FNA:43,11110,_ZNKSt3__112basic_stringIcNS_11char_traitsIcEENS_9allocatorIcEEE21__make_const_iteratorB8ne190102EPKc
FNL:44,984
FNA:44,4829,_ZNSt3__112basic_stringIcNS_11char_traitsIcEENS_9allocatorIcEEEC1B8ne190102Ev
FNA:44,4829,_ZNSt3__112basic_stringIcNS_11char_traitsIcEENS_9allocatorIcEEEC2B8ne190102Ev
FNF:45
FNH:33
DA:969,11110
DA:977,11110
DA:984,9658
DA:986,9658
DA:987,4829
DA:988,9658
DA:1020,26554
DA:1029,39831
DA:1030,13277
DA:1031,13244
DA:1032,13277
DA:1033,26554
DA:1034,13277
DA:1035,13277
DA:1036,13277
DA:1037,13244
DA:1038,26554
DA:1059,7733
DA:1060,7733
DA:1062,4026
DA:1063,7733
DA:1089,0
DA:1090,0
DA:1091,0
DA:1092,0
DA:1216,358215
DA:1217,358215
DA:1234,33
DA:1235,33
DA:1236,33
DA:1243,0
DA:1244,0
DA:1254,5555
DA:1255,5555
DA:1260,5555
DA:1261,5555
DA:1284,739772
DA:1285,739772
DA:1287,275
DA:1347,0
DA:1348,0
DA:1361,0
DA:1362,0
DA:1376,0
DA:1377,0
DA:1703,275
DA:1704,719587
DA:1705,719587
DA:1708,0
DA:1709,0
DA:1877,1497122
DA:1881,1497122
DA:1950,66
DA:1954,33
DA:1956,33
DA:1957,33
DA:1958,33
DA:1961,739805
DA:1963,739805
DA:1969,0
DA:1970,0
DA:1984,0
DA:1985,0
DA:1991,0
DA:1992,0
DA:1994,0
DA:1995,0
DA:1998,33
DA:1999,33
DA:2002,730697
DA:2003,730697
DA:2005,0
DA:2006,0
DA:2008,730697
DA:2009,730697
DA:2027,31383
DA:2033,31383
DA:2035,13277
DA:2040,13277
DA:2050,33
DA:2056,33
DA:2185,33
DA:2188,33
DA:2189,33
DA:2190,33
DA:2192,33
DA:2194,33
DA:2195,33
DA:2685,33
DA:2692,33
DA:2693,33
DA:2694,0
DA:2702,0
DA:2703,33
DA:2704,33
DA:2706,33
DA:2707,33
DA:2708,33
DA:2709,33
DA:2711,33
DA:2712,33
DA:2716,0
DA:2725,33
DA:2727,33
DA:2728,33
DA:3493,0
DA:3495,0
DA:3496,0
DA:3709,358215
DA:3710,358215
DA:3711,358215
DA:3712,358215
DA:3713,358215
DA:3714,358215
DA:3715,316503
DA:3716,41712
DA:3717,20790
DA:3718,20922
DA:3719,20812
DA:3720,110
DA:3721,358215
DA:3725,358215
DA:3726,358215
DA:3835,1859
DA:3837,1859
DA:3838,1859
DA:3839,418
DA:3840,1441
DA:3841,1859
DA:3858,517
DA:3864,517
DA:3865,517
DA:3866,0
DA:3867,517
DA:3869,517
DA:3908,358215
DA:3910,358215
DA:3928,169433
DA:3930,169433
DA:4089,13200
DA:4090,13200
LF:141
LH:110
end_of_record
TN:
SF:/Library/Developer/CommandLineTools/SDKs/MacOSX.sdk/usr/include/c++/v1/string_view
FNL:0,310
FNA:0,358215,_ZNSt3__117basic_string_viewIcNS_11char_traitsIcEEEC1B8ne190102EPKcm
FNA:0,358215,_ZNSt3__117basic_string_viewIcNS_11char_traitsIcEEEC2B8ne190102EPKcm
FNL:1,390
FNA:1,358215,_ZNKSt3__117basic_string_viewIcNS_11char_traitsIcEEE4sizeB8ne190102Ev
FNL:2,417
FNA:2,358215,_ZNKSt3__117basic_string_viewIcNS_11char_traitsIcEEE4dataB8ne190102Ev
FNF:3
FNH:3
DA:310,716430
DA:311,358215
DA:312,716430
DA:323,716430
DA:390,358215
DA:417,358215
LF:6
LH:6
end_of_record
TN:
SF:/Library/Developer/CommandLineTools/SDKs/MacOSX.sdk/usr/include/c++/v1/tuple
FNL:0,1064
FNA:0,11,_ZNSt3__13getB8ne190102ILm0EJONS_9allocatorIZN16BinarySearchTree11deserializeERNS_14basic_ifstreamIcNS_11char_traitsIcEEEEE3$_0EEEEERNS_13tuple_elementIXT_ENS_5tupleIJDpT0_EEEE4typeERSF_
FNA:0,11,_ZNSt3__13getB8ne190102ILm0EJOZN16BinarySearchTree11deserializeERNS_14basic_ifstreamIcNS_11char_traitsIcEEEEE3$_0EEERNS_13tuple_elementIXT_ENS_5tupleIJDpT0_EEEE4typeERSD_
FNA:0,0,_ZNSt3__13getB8ne190102ILm0EJRKNS_9allocatorIZN16BinarySearchTree11deserializeERNS_14basic_ifstreamIcNS_11char_traitsIcEEEEE3$_0EEEEERNS_13tuple_elementIXT_ENS_5tupleIJDpT0_EEEE4typeERSG_
FNA:0,0,_ZNSt3__13getB8ne190102ILm0EJRKZN16BinarySearchTree11deserializeERNS_14basic_ifstreamIcNS_11char_traitsIcEEEEE3$_0EEERNS_13tuple_elementIXT_ENS_5tupleIJDpT0_EEEE4typeERSE_
FNL:1,1128
FNA:1,11,_ZNSt3__116forward_as_tupleB8ne190102IJNS_9allocatorIZN16BinarySearchTree11deserializeERNS_14basic_ifstreamIcNS_11char_traitsIcEEEEE3$_0EEEEENS_5tupleIJDpOT_EEESD_
FNA:1,0,_ZNSt3__116forward_as_tupleB8ne190102IJRKNS_9allocatorIZN16BinarySearchTree11deserializeERNS_14basic_ifstreamIcNS_11char_traitsIcEEEEE3$_0EEEEENS_5tupleIJDpOT_EEESF_
FNA:1,0,_ZNSt3__116forward_as_tupleB8ne190102IJRKZN16BinarySearchTree11deserializeERNS_14basic_ifstreamIcNS_11char_traitsIcEEEEE3$_0EEENS_5tupleIJDpOT_EEESD_
FNA:1,11,_ZNSt3__116forward_as_tupleB8ne190102IJZN16BinarySearchTree11deserializeERNS_14basic_ifstreamIcNS_11char_traitsIcEEEEE3$_0EEENS_5tupleIJDpOT_EEESB_
FNL:2,339
FNA:2,11,_ZNSt3__112__tuple_leafILm0EONS_9allocatorIZN16BinarySearchTree11deserializeERNS_14basic_ifstreamIcNS_11char_traitsIcEEEEE3$_0EELb0EEC2B8ne190102IS9_Li0EEEOT_
FNA:2,11,_ZNSt3__112__tuple_leafILm0EOZN16BinarySearchTree11deserializeERNS_14basic_ifstreamIcNS_11char_traitsIcEEEEE3$_0Lb0EEC2B8ne190102IS7_Li0EEEOT_
FNA:2,0,_ZNSt3__112__tuple_leafILm0ERKNS_9allocatorIZN16BinarySearchTree11deserializeERNS_14basic_ifstreamIcNS_11char_traitsIcEEEEE3$_0EELb0EEC2B8ne190102ISB_Li0EEEOT_
FNA:2,0,_ZNSt3__112__tuple_leafILm0ERKZN16BinarySearchTree11deserializeERNS_14basic_ifstreamIcNS_11char_traitsIcEEEEE3$_0Lb0EEC2B8ne190102IS9_Li0EEEOT_
FNL:3,382
FNA:3,11,_ZNSt3__112__tuple_leafILm0EONS_9allocatorIZN16BinarySearchTree11deserializeERNS_14basic_ifstreamIcNS_11char_traitsIcEEEEE3$_0EELb0EE3getB8ne190102Ev
FNA:3,11,_ZNSt3__112__tuple_leafILm0EOZN16BinarySearchTree11deserializeERNS_14basic_ifstreamIcNS_11char_traitsIcEEEEE3$_0Lb0EE3getB8ne190102Ev
FNA:3,0,_ZNSt3__112__tuple_leafILm0ERKNS_9allocatorIZN16BinarySearchTree11deserializeERNS_14basic_ifstreamIcNS_11char_traitsIcEEEEE3$_0EELb0EE3getB8ne190102Ev
FNA:3,0,_ZNSt3__112__tuple_leafILm0ERKZN16BinarySearchTree11deserializeERNS_14basic_ifstreamIcNS_11char_traitsIcEEEEE3$_0Lb0EE3getB8ne190102Ev
FNL:4,464
FNA:4,11,_ZNSt3__112__tuple_implINS_15__tuple_indicesIJLm0EEEEJONS_9allocatorIZN16BinarySearchTree11deserializeERNS_14basic_ifstreamIcNS_11char_traitsIcEEEEE3$_0EEEEC1B8ne190102IJLm0EEJSC_EJEJEJSB_EEENS1_IJXspT_EEEENS_13__tuple_typesIJDpT0_EEENS1_IJXspT1_EEEENSG_IJDpT2_EEEDpOT3_
FNA:4,11,_ZNSt3__112__tuple_implINS_15__tuple_indicesIJLm0EEEEJONS_9allocatorIZN16BinarySearchTree11deserializeERNS_14basic_ifstreamIcNS_11char_traitsIcEEEEE3$_0EEEEC2B8ne190102IJLm0EEJSC_EJEJEJSB_EEENS1_IJXspT_EEEENS_13__tuple_typesIJDpT0_EEENS1_IJXspT1_EEEENSG_IJDpT2_EEEDpOT3_
FNA:4,11,_ZNSt3__112__tuple_implINS_15__tuple_indicesIJLm0EEEEJOZN16BinarySearchTree11deserializeERNS_14basic_ifstreamIcNS_11char_traitsIcEEEEE3$_0EEC1B8ne190102IJLm0EEJSA_EJEJEJS9_EEENS1_IJXspT_EEEENS_13__tuple_typesIJDpT0_EEENS1_IJXspT1_EEEENSE_IJDpT2_EEEDpOT3_
FNA:4,11,_ZNSt3__112__tuple_implINS_15__tuple_indicesIJLm0EEEEJOZN16BinarySearchTree11deserializeERNS_14basic_ifstreamIcNS_11char_traitsIcEEEEE3$_0EEC2B8ne190102IJLm0EEJSA_EJEJEJS9_EEENS1_IJXspT_EEEENS_13__tuple_typesIJDpT0_EEENS1_IJXspT1_EEEENSE_IJDpT2_EEEDpOT3_
FNA:4,0,_ZNSt3__112__tuple_implINS_15__tuple_indicesIJLm0EEEEJRKNS_9allocatorIZN16BinarySearchTree11deserializeERNS_14basic_ifstreamIcNS_11char_traitsIcEEEEE3$_0EEEEC1B8ne190102IJLm0EEJSD_EJEJEJSD_EEENS1_IJXspT_EEEENS_13__tuple_typesIJDpT0_EEENS1_IJXspT1_EEEENSH_IJDpT2_EEEDpOT3_
FNA:4,0,_ZNSt3__112__tuple_implINS_15__tuple_indicesIJLm0EEEEJRKNS_9allocatorIZN16BinarySearchTree11deserializeERNS_14basic_ifstreamIcNS_11char_traitsIcEEEEE3$_0EEEEC2B8ne190102IJLm0EEJSD_EJEJEJSD_EEENS1_IJXspT_EEEENS_13__tuple_typesIJDpT0_EEENS1_IJXspT1_EEEENSH_IJDpT2_EEEDpOT3_
FNA:4,0,_ZNSt3__112__tuple_implINS_15__tuple_indicesIJLm0EEEEJRKZN16BinarySearchTree11deserializeERNS_14basic_ifstreamIcNS_11char_traitsIcEEEEE3$_0EEC1B8ne190102IJLm0EEJSB_EJEJEJSB_EEENS1_IJXspT_EEEENS_13__tuple_typesIJDpT0_EEENS1_IJXspT1_EEEENSF_IJDpT2_EEEDpOT3_
FNA:4,0,_ZNSt3__112__tuple_implINS_15__tuple_indicesIJLm0EEEEJRKZN16BinarySearchTree11deserializeERNS_14basic_ifstreamIcNS_11char_traitsIcEEEEE3$_0EEC2B8ne190102IJLm0EEJSB_EJEJEJSB_EEENS1_IJXspT_EEEENS_13__tuple_typesIJDpT0_EEENS1_IJXspT1_EEEENSF_IJDpT2_EEEDpOT3_
FNL:5,578
FNA:5,0,_ZNSt3__15tupleIJRKNS_9allocatorIZN16BinarySearchTree11deserializeERNS_14basic_ifstreamIcNS_11char_traitsIcEEEEE3$_0EEEEC1B8ne190102INS_4_AndELi0EEESB_
FNA:5,0,_ZNSt3__15tupleIJRKNS_9allocatorIZN16BinarySearchTree11deserializeERNS_14basic_ifstreamIcNS_11char_traitsIcEEEEE3$_0EEEEC2B8ne190102INS_4_AndELi0EEESB_
FNA:5,0,_ZNSt3__15tupleIJRKZN16BinarySearchTree11deserializeERNS_14basic_ifstreamIcNS_11char_traitsIcEEEEE3$_0EEC1B8ne190102INS_4_AndELi0EEES9_
FNA:5,0,_ZNSt3__15tupleIJRKZN16BinarySearchTree11deserializeERNS_14basic_ifstreamIcNS_11char_traitsIcEEEEE3$_0EEC2B8ne190102INS_4_AndELi0EEES9_
FNL:6,615
FNA:6,11,_ZNSt3__15tupleIJONS_9allocatorIZN16BinarySearchTree11deserializeERNS_14basic_ifstreamIcNS_11char_traitsIcEEEEE3$_0EEEEC1B8ne190102IJS9_ELi0EEEDpOT_
FNA:6,11,_ZNSt3__15tupleIJONS_9allocatorIZN16BinarySearchTree11deserializeERNS_14basic_ifstreamIcNS_11char_traitsIcEEEEE3$_0EEEEC2B8ne190102IJS9_ELi0EEEDpOT_
FNA:6,11,_ZNSt3__15tupleIJOZN16BinarySearchTree11deserializeERNS_14basic_ifstreamIcNS_11char_traitsIcEEEEE3$_0EEC1B8ne190102IJS7_ELi0EEEDpOT_
FNA:6,11,_ZNSt3__15tupleIJOZN16BinarySearchTree11deserializeERNS_14basic_ifstreamIcNS_11char_traitsIcEEEEE3$_0EEC2B8ne190102IJS7_ELi0EEEDpOT_
FNF:7
FNH:6
DA:339,22
DA:340,22
DA:343,22
DA:382,22
DA:464,44
DA:471,44
DA:578,0
DA:579,0
DA:583,0
DA:615,44
DA:616,44
DA:620,66
DA:1064,22
DA:1066,22
DA:1128,22
DA:1129,22
LF:16
LH:13
end_of_record
TN:
SF:/Library/Developer/CommandLineTools/SDKs/MacOSX.sdk/usr/include/c++/v1/typeinfo
FNL:0,228
FNA:0,0,_ZNSt27__type_info_implementations30__non_unique_arm_rtti_bit_impl21__type_name_to_stringB8ne190102Em
FNL:1,240
FNA:1,0,_ZNSt27__type_info_implementations30__non_unique_arm_rtti_bit_impl4__eqB8ne190102Emm
FNL:2,261
FNA:2,0,_ZNSt27__type_info_implementations30__non_unique_arm_rtti_bit_impl21__is_type_name_uniqueB8ne190102Em
FNL:3,306
FNA:3,0,_ZNKSt9type_info4nameB8ne190102Ev
FNL:4,314
FNA:4,0,_ZNKSt9type_infoeqB8ne190102ERKS_
FNF:5
FNH:0
DA:228,0
DA:229,0
DA:240,0
DA:241,0
DA:242,0
DA:243,0
DA:246,0
DA:247,0
DA:248,0
DA:261,0
DA:262,0
DA:306,0
DA:314,0
DA:320,0
LF:14
LH:0
end_of_record
TN:
SF:/Users/danil/education/semestr3/Laba3-semestr3/Laba3/C++/include/Array.h
FNL:0,34,34
FNA:0,143,_ZNK5Array7getSizeEv
FNL:1,36,36
FNA:1,33,_ZNK5Array5emptyEv
FNF:2
FNH:2
DA:34,143
DA:36,33
LF:2
LH:2
end_of_record
TN:
SF:/Users/danil/education/semestr3/Laba3-semestr3/Laba3/C++/include/BinarySearchTree.h
FNL:0,14,15
FNA:0,11418,_ZN16BinarySearchTree4NodeC1ERKNSt3__112basic_stringIcNS1_11char_traitsIcEENS1_9allocatorIcEEEE
FNA:0,11418,_ZN16BinarySearchTree4NodeC2ERKNSt3__112basic_stringIcNS1_11char_traitsIcEENS1_9allocatorIcEEEE
FNL:1,45,45
FNA:1,143,_ZNK16BinarySearchTree7getSizeEv
FNL:2,46,46
FNA:2,33,_ZNK16BinarySearchTree5emptyEv
FNL:3,9,14
FNA:3,11418,_ZN16BinarySearchTree4NodeD1Ev
FNA:3,11418,_ZN16BinarySearchTree4NodeD2Ev
FNF:4
FNH:4
DA:14,22836
DA:15,22836
DA:45,143
DA:46,33
LF:4
LH:4
end_of_record
TN:
SF:/Users/danil/education/semestr3/Laba3-semestr3/Laba3/C++/include/DoubleLinkedList.h
FNL:0,14,15
FNA:0,1243,_ZN16DoubleLinkedList4NodeC1ERKNSt3__112basic_stringIcNS1_11char_traitsIcEENS1_9allocatorIcEEEE
FNA:0,1243,_ZN16DoubleLinkedList4NodeC2ERKNSt3__112basic_stringIcNS1_11char_traitsIcEENS1_9allocatorIcEEEE
FNL:1,43,43
FNA:1,143,_ZNK16DoubleLinkedList7getSizeEv
FNL:2,44,44
FNA:2,11,_ZNK16DoubleLinkedList5emptyEv
FNL:3,9,14
FNA:3,1243,_ZN16DoubleLinkedList4NodeD1Ev
FNA:3,1243,_ZN16DoubleLinkedList4NodeD2Ev
FNF:4
FNH:4
DA:14,2486
DA:15,2486
DA:43,143
DA:44,11
LF:4
LH:4
end_of_record
TN:
SF:/Users/danil/education/semestr3/Laba3-semestr3/Laba3/C++/include/HashTable.h
FNL:0,14,15
FNA:0,5401,_ZN9HashTable4NodeC1ERKNSt3__112basic_stringIcNS1_11char_traitsIcEENS1_9allocatorIcEEEES9_
FNA:0,5401,_ZN9HashTable4NodeC2ERKNSt3__112basic_stringIcNS1_11char_traitsIcEENS1_9allocatorIcEEEES9_
FNL:1,43,43
FNA:1,121,_ZNK9HashTable7getSizeEv
FNL:2,45,45
FNA:2,33,_ZNK9HashTable5emptyEv
FNL:3,9,14
FNA:3,5401,_ZN9HashTable4NodeD1Ev
FNA:3,5401,_ZN9HashTable4NodeD2Ev
FNF:4
FNH:4
DA:14,10802
DA:15,10802
DA:43,121
DA:45,33
LF:4
LH:4
end_of_record
TN:
SF:/Users/danil/education/semestr3/Laba3-semestr3/Laba3/C++/include/LinkedList.h
FNL:0,13,13
FNA:0,132,_ZN10LinkedList4NodeC1ERKNSt3__112basic_stringIcNS1_11char_traitsIcEENS1_9allocatorIcEEEE
FNA:0,132,_ZN10LinkedList4NodeC2ERKNSt3__112basic_stringIcNS1_11char_traitsIcEENS1_9allocatorIcEEEE
FNL:1,40,40
FNA:1,154,_ZNK10LinkedList7getSizeEv
FNL:2,41,41
FNA:2,22,_ZNK10LinkedList5emptyEv
FNL:3,9,13
FNA:3,132,_ZN10LinkedList4NodeD1Ev
FNA:3,132,_ZN10LinkedList4NodeD2Ev
FNF:4
FNH:4
DA:13,264
DA:40,154
DA:41,22
LF:3
LH:3
end_of_record
TN:
SF:/Users/danil/education/semestr3/Laba3-semestr3/Laba3/C++/include/Queue.h
FNL:0,13,13
FNA:0,198,_ZN5Queue4NodeC1ERKNSt3__112basic_stringIcNS1_11char_traitsIcEENS1_9allocatorIcEEEE
FNA:0,198,_ZN5Queue4NodeC2ERKNSt3__112basic_stringIcNS1_11char_traitsIcEENS1_9allocatorIcEEEE
FNL:1,35,35
FNA:1,121,_ZNK5Queue7getSizeEv
FNL:2,36,36
FNA:2,33,_ZNK5Queue5emptyEv
FNL:3,9,13
FNA:3,198,_ZN5Queue4NodeD1Ev
FNA:3,198,_ZN5Queue4NodeD2Ev
FNF:4
FNH:4
DA:13,396
DA:35,121
DA:36,33
LF:3
LH:3
end_of_record
TN:
SF:/Users/danil/education/semestr3/Laba3-semestr3/Laba3/C++/include/Stack.h
FNL:0,13,13
FNA:0,231,_ZN5Stack4NodeC1ERKNSt3__112basic_stringIcNS1_11char_traitsIcEENS1_9allocatorIcEEEE
FNA:0,231,_ZN5Stack4NodeC2ERKNSt3__112basic_stringIcNS1_11char_traitsIcEENS1_9allocatorIcEEEE
FNL:1,34,34
FNA:1,99,_ZNK5Stack7getSizeEv
FNL:2,35,35
FNA:2,33,_ZNK5Stack5emptyEv
FNL:3,9,13
FNA:3,231,_ZN5Stack4NodeD1Ev
FNA:3,231,_ZN5Stack4NodeD2Ev
FNF:4
FNH:4
DA:13,462
DA:34,99
DA:35,33
LF:3
LH:3
end_of_record
TN:
SF:/Users/danil/education/semestr3/Laba3-semestr3/Laba3/C++/src/Array.cpp
FNL:0,104,104
FNA:0,22,_ZN5Array5clearEv
FNL:1,106,113
FNA:1,11,_ZNK5Array9serializeERNSt3__114basic_ofstreamIcNS0_11char_traitsIcEEEE
FNL:2,115,129
FNA:2,11,_ZN5Array11deserializeERNSt3__114basic_ifstreamIcNS0_11char_traitsIcEEEE
FNL:3,17,22
FNA:3,11,_ZN5ArrayC1ERKS_
FNA:3,11,_ZN5ArrayC2ERKS_
FNL:4,24,24
FNA:4,44,_ZN5ArrayD1Ev
FNA:4,44,_ZN5ArrayD2Ev
FNL:5,26,36
FNA:5,11,_ZN5ArrayaSERKS_
FNL:6,39,47
FNA:6,44,_ZN5Array6resizeEv
FNL:7,49,54
FNA:7,1155,_ZN5Array6appendERKNSt3__112basic_stringIcNS0_11char_traitsIcEENS0_9allocatorIcEEEE
FNL:8,5,7
FNA:8,33,_ZN5ArrayC1Ev
FNA:8,33,_ZN5ArrayC2Ev
FNL:9,56,68
FNA:9,11,_ZN5Array6insertEiRKNSt3__112basic_stringIcNS0_11char_traitsIcEENS0_9allocatorIcEEEE
FNL:10,70,75
FNA:10,143,_ZNK5Array3getEi
FNL:11,77,82
FNA:11,33,_ZN5Array3setEiRKNSt3__112basic_stringIcNS0_11char_traitsIcEENS0_9allocatorIcEEEE
FNL:12,84,92
FNA:12,22,_ZN5Array6removeEi
FNL:13,9,15
FNA:13,0,_ZN5ArrayC1Ei
FNA:13,0,_ZN5ArrayC2Ei
FNL:14,94,102
FNA:14,22,_ZN5Array13removeByValueERKNSt3__112basic_stringIcNS0_11char_traitsIcEENS0_9allocatorIcEEEE
FNF:15
FNH:14
DA:5,66
DA:6,33
DA:7,66
DA:9,0
DA:10,0
DA:11,0
DA:12,0
DA:13,0
DA:14,0
DA:15,0
DA:17,22
DA:18,11
DA:19,33
DA:20,22
DA:21,22
DA:22,22
DA:24,88
DA:26,11
DA:27,11
DA:28,11
DA:29,11
DA:30,11
DA:31,11
DA:32,33
DA:33,22
DA:34,22
DA:35,11
DA:36,11
DA:39,44
DA:40,44
DA:41,44
DA:42,1694
DA:43,1650
DA:44,1650
DA:45,44
DA:46,44
DA:47,44
DA:49,1155
DA:50,1155
DA:51,44
DA:52,44
DA:53,1155
DA:54,1155
DA:56,11
DA:57,11
DA:58,0
DA:60,11
DA:61,0
DA:62,0
DA:63,33
DA:64,22
DA:65,22
DA:66,11
DA:67,11
DA:68,11
DA:70,143
DA:71,143
DA:72,11
DA:74,132
DA:75,0
DA:77,33
DA:78,33
DA:79,11
DA:81,22
DA:82,22
DA:84,22
DA:85,22
DA:86,0
DA:88,55
DA:89,33
DA:90,33
DA:91,22
DA:92,22
DA:94,22
DA:95,55
DA:96,44
DA:97,11
DA:98,11
DA:100,33
DA:101,11
DA:102,22
DA:104,22
DA:106,11
DA:107,11
DA:108,33
DA:109,22
DA:110,22
DA:111,22
DA:112,22
DA:113,11
DA:115,11
DA:116,11
DA:118,11
DA:120,33
DA:122,22
DA:123,22
DA:124,22
DA:125,22
DA:126,22
DA:127,22
DA:128,22
DA:129,11
LF:102
LH:90
end_of_record
TN:
SF:/Users/danil/education/semestr3/Laba3-semestr3/Laba3/C++/src/BinarySearchTree.cpp
FNL:0,111,117
FNA:0,22858,_ZN16BinarySearchTree11clearHelperEPNS_4NodeE
FNL:1,119,121
FNA:1,11165,_ZN16BinarySearchTree6insertERKNSt3__112basic_stringIcNS0_11char_traitsIcEENS0_9allocatorIcEEEE
FNL:2,12,12
FNA:2,44,_ZN16BinarySearchTreeD1Ev
FNA:2,44,_ZN16BinarySearchTreeD2Ev
FNL:3,123,125
FNA:3,33,_ZN16BinarySearchTree6removeERKNSt3__112basic_stringIcNS0_11char_traitsIcEENS0_9allocatorIcEEEE
FNL:4,127,128
FNA:4,330,_ZNK16BinarySearchTree6searchERKNSt3__112basic_stringIcNS0_11char_traitsIcEENS0_9allocatorIcEEEE
FNL:5,131,135
FNA:5,88,_ZN16BinarySearchTree5clearEv
FNL:6,137,150
FNA:6,187,_ZNK16BinarySearchTree15serializeHelperEPNS_4NodeERNSt3__114basic_ofstreamIcNS2_11char_traitsIcEEEE
FNL:7,14,20
FNA:7,11,_ZN16BinarySearchTreeaSERKS_
FNL:8,152,155
FNA:8,11,_ZNK16BinarySearchTree9serializeERNSt3__114basic_ofstreamIcNS0_11char_traitsIcEEEE
FNL:9,157,160
FNA:9,11,_ZN16BinarySearchTree11deserializeERNSt3__114basic_ifstreamIcNS0_11char_traitsIcEEEE
FNL:10,163,186
FNA:10,187,_ZZN16BinarySearchTree11deserializeERNSt3__114basic_ifstreamIcNS0_11char_traitsIcEEEEENK3$_0clEv
FNL:11,23,32
FNA:11,374,_ZN16BinarySearchTree10copyHelperEPKNS_4NodeE
FNL:12,35,49
FNA:12,199276,_ZN16BinarySearchTree12insertHelperEPNS_4NodeERKNSt3__112basic_stringIcNS2_11char_traitsIcEENS2_9allocatorIcEEEE
FNL:13,4,4
FNA:13,33,_ZN16BinarySearchTreeC1Ev
FNA:13,33,_ZN16BinarySearchTreeC2Ev
FNL:14,51,55
FNA:14,11,_ZNK16BinarySearchTree7findMinEPNS_4NodeE
FNL:15,59,94
FNA:15,88,_ZN16BinarySearchTree12removeHelperEPNS_4NodeERKNSt3__112basic_stringIcNS2_11char_traitsIcEENS2_9allocatorIcEEEE
FNL:16,6,10
FNA:16,11,_ZN16BinarySearchTreeC1ERKS_
FNA:16,11,_ZN16BinarySearchTreeC2ERKS_
FNL:17,96,109
FNA:17,902,_ZNK16BinarySearchTree12searchHelperEPNS_4NodeERKNSt3__112basic_stringIcNS2_11char_traitsIcEENS2_9allocatorIcEEEE
FNF:18
FNH:18
DA:4,66
DA:6,22
DA:7,22
DA:8,11
DA:9,11
DA:10,22
DA:12,88
DA:14,11
DA:15,11
DA:16,11
DA:17,11
DA:18,11
DA:19,11
DA:20,11
DA:23,374
DA:24,374
DA:25,198
DA:28,176
DA:29,176
DA:30,176
DA:31,176
DA:32,374
DA:35,199276
DA:36,199276
DA:37,11154
DA:38,11154
DA:41,188122
DA:42,18733
DA:43,188122
DA:44,169378
DA:45,169378
DA:48,188122
DA:49,199276
DA:51,11
DA:52,22
DA:53,11
DA:55,11
DA:59,88
DA:60,88
DA:61,0
DA:64,88
DA:65,44
DA:66,88
DA:67,0
DA:68,0
DA:70,44
DA:71,22
DA:72,22
DA:73,22
DA:74,22
DA:75,0
DA:76,0
DA:77,0
DA:78,0
DA:79,22
DA:80,11
DA:81,11
DA:82,11
DA:83,11
DA:86,11
DA:87,11
DA:88,11
DA:89,11
DA:93,55
DA:94,88
DA:96,902
DA:98,902
DA:99,55
DA:102,847
DA:103,275
DA:104,572
DA:105,264
DA:107,308
DA:109,902
DA:111,22858
DA:112,22858
DA:113,11385
DA:114,11385
DA:115,11385
DA:116,11385
DA:117,22858
DA:119,11165
DA:120,11165
DA:121,11165
DA:123,33
DA:124,33
DA:125,33
DA:127,330
DA:128,330
DA:131,88
DA:132,88
DA:133,88
DA:134,88
DA:135,88
DA:137,187
DA:138,187
DA:139,99
DA:140,99
DA:141,99
DA:144,88
DA:145,88
DA:146,88
DA:148,88
DA:149,88
DA:150,187
DA:152,11
DA:153,11
DA:154,11
DA:155,11
DA:157,11
DA:158,11
DA:160,11
DA:163,198
DA:165,187
DA:167,187
DA:168,99
DA:171,88
DA:172,88
DA:173,88
DA:175,88
DA:176,88
DA:178,88
DA:179,88
DA:181,88
DA:182,187
DA:184,11
DA:185,11
DA:186,11
LF:128
LH:121
end_of_record
TN:
SF:/Users/danil/education/semestr3/Laba3-semestr3/Laba3/C++/src/DoubleLinkedList.cpp
FNL:0,119,133
FNA:0,11,_ZN16DoubleLinkedList8popFrontEv
FNL:1,135,149
FNA:1,22,_ZN16DoubleLinkedList7popBackEv
FNL:2,15,15
FNA:2,44,_ZN16DoubleLinkedListD1Ev
FNA:2,44,_ZN16DoubleLinkedListD2Ev
FNL:3,151,173
FNA:3,11,_ZN16DoubleLinkedList6removeEi
FNL:4,17,26
FNA:4,11,_ZN16DoubleLinkedListaSERKS_
FNL:5,175,194
FNA:5,22,_ZN16DoubleLinkedList13removeByValueERKNSt3__112basic_stringIcNS0_11char_traitsIcEENS0_9allocatorIcEEEE
FNL:6,196,204
FNA:6,99,_ZN16DoubleLinkedList5clearEv
FNL:7,206,215
FNA:7,11,_ZNK16DoubleLinkedList9serializeERNSt3__114basic_ofstreamIcNS0_11char_traitsIcEEEE
FNL:8,217,231
FNA:8,11,_ZN16DoubleLinkedList11deserializeERNSt3__114basic_ifstreamIcNS0_11char_traitsIcEEEE
FNL:9,29,39
FNA:9,11,_ZN16DoubleLinkedList9pushFrontERKNSt3__112basic_stringIcNS0_11char_traitsIcEENS0_9allocatorIcEEEE
FNL:10,4,4
FNA:10,33,_ZN16DoubleLinkedListC1Ev
FNA:10,33,_ZN16DoubleLinkedListC2Ev
FNL:11,41,51
FNA:11,1221,_ZN16DoubleLinkedList8pushBackERKNSt3__112basic_stringIcNS0_11char_traitsIcEENS0_9allocatorIcEEEE
FNL:12,53,77
FNA:12,11,_ZN16DoubleLinkedList6insertEiRKNSt3__112basic_stringIcNS0_11char_traitsIcEENS0_9allocatorIcEEEE
FNL:13,6,13
FNA:13,11,_ZN16DoubleLinkedListC1ERKS_
FNA:13,11,_ZN16DoubleLinkedListC2ERKS_
FNL:14,79,97
FNA:14,88,_ZNK16DoubleLinkedList3getEi
FNL:15,99,117
FNA:15,11,_ZN16DoubleLinkedList3setEiRKNSt3__112basic_stringIcNS0_11char_traitsIcEENS0_9allocatorIcEEEE
FNF:16
FNH:16
DA:4,66
DA:6,22
DA:7,22
DA:8,11
DA:9,33
DA:10,22
DA:11,22
DA:13,22
DA:15,88
DA:17,11
DA:18,11
DA:19,11
DA:20,11
DA:21,33
DA:22,22
DA:23,22
DA:25,11
DA:26,11
DA:29,11
DA:30,11
DA:31,11
DA:32,0
DA:33,0
DA:34,11
DA:35,11
DA:36,11
DA:38,11
DA:39,11
DA:41,1221
DA:42,1221
DA:43,1221
DA:44,66
DA:45,66
DA:46,1155
DA:47,1155
DA:48,1155
DA:50,1221
DA:51,1221
DA:53,11
DA:54,11
DA:55,0
DA:57,11
DA:58,0
DA:59,0
DA:61,11
DA:62,0
DA:63,0
DA:66,11
DA:67,11
DA:68,22
DA:69,11
DA:70,11
DA:72,11
DA:73,11
DA:74,11
DA:75,11
DA:76,11
DA:77,11
DA:79,88
DA:80,88
DA:81,0
DA:85,88
DA:86,44
DA:87,44
DA:88,0
DA:89,0
DA:90,44
DA:91,44
DA:92,594
DA:93,550
DA:94,550
DA:96,88
DA:97,0
DA:99,11
DA:100,11
DA:101,0
DA:105,11
DA:106,11
DA:107,11
DA:108,0
DA:109,0
DA:110,11
DA:111,0
DA:112,0
DA:113,0
DA:114,0
DA:116,11
DA:117,11
DA:119,11
DA:120,11
DA:121,0
DA:124,11
DA:125,11
DA:126,11
DA:127,11
DA:128,11
DA:129,0
DA:131,11
DA:132,11
DA:133,11
DA:135,22
DA:136,22
DA:137,0
DA:140,22
DA:141,22
DA:142,22
DA:143,22
DA:144,22
DA:145,0
DA:147,22
DA:148,22
DA:149,22
DA:151,11
DA:152,11
DA:153,0
DA:155,11
DA:156,0
DA:157,0
DA:159,11
DA:160,0
DA:161,0
DA:164,11
DA:165,22
DA:166,11
DA:167,11
DA:169,11
DA:170,11
DA:171,11
DA:172,11
DA:173,11
DA:175,22
DA:176,22
DA:177,66
DA:178,55
DA:179,11
DA:180,0
DA:181,11
DA:182,11
DA:183,11
DA:184,0
DA:185,0
DA:186,0
DA:187,0
DA:189,11
DA:191,44
DA:193,11
DA:194,22
DA:196,99
DA:197,1298
DA:198,1199
DA:199,1199
DA:200,1199
DA:202,99
DA:203,99
DA:204,99
DA:206,11
DA:207,11
DA:208,11
DA:209,33
DA:210,22
DA:211,22
DA:212,22
DA:213,22
DA:215,11
DA:217,11
DA:218,11
DA:220,11
DA:222,33
DA:224,22
DA:225,22
DA:226,22
DA:227,22
DA:228,22
DA:229,22
DA:230,22
DA:231,11
LF:176
LH:144
end_of_record
TN:
SF:/Users/danil/education/semestr3/Laba3-semestr3/Laba3/C++/src/HashTable.cpp
FNL:0,103,125
FNA:0,5412,_ZN9HashTable6insertERKNSt3__112basic_stringIcNS0_11char_traitsIcEENS0_9allocatorIcEEEES8_
FNL:1,12,21
FNA:1,0,_ZN9HashTableC1Ei
FNA:1,0,_ZN9HashTableC2Ei
FNL:2,127,139
FNA:2,99,_ZNK9HashTable3getERKNSt3__112basic_stringIcNS0_11char_traitsIcEENS0_9allocatorIcEEEE
FNL:3,141,152
FNA:3,33,_ZNK9HashTable8containsERKNSt3__112basic_stringIcNS0_11char_traitsIcEENS0_9allocatorIcEEEE
FNL:4,154,173
FNA:4,11,_ZN9HashTable6removeERKNSt3__112basic_stringIcNS0_11char_traitsIcEENS0_9allocatorIcEEEE
FNL:5,175,186
FNA:5,88,_ZN9HashTable5clearEv
FNL:6,188,206
FNA:6,11,_ZNK9HashTable9serializeERNSt3__114basic_ofstreamIcNS0_11char_traitsIcEEEE
FNL:7,208,231
FNA:7,11,_ZN9HashTable11deserializeERNSt3__114basic_ifstreamIcNS0_11char_traitsIcEEEE
FNL:8,23,37
FNA:8,11,_ZN9HashTableC1ERKS_
FNA:8,11,_ZN9HashTableC2ERKS_
FNL:9,39,42
FNA:9,55,_ZN9HashTableD1Ev
FNA:9,55,_ZN9HashTableD2Ev
FNL:10,4,10
FNA:10,44,_ZN9HashTableC1Ev
FNA:10,44,_ZN9HashTableC2Ev
FNL:11,44,66
FNA:11,11,_ZN9HashTableaSERKS_
FNL:12,69,74
FNA:12,5555,_ZNK9HashTable4hashERKNSt3__112basic_stringIcNS0_11char_traitsIcEENS0_9allocatorIcEEEE
FNL:13,77,101
FNA:13,44,_ZN9HashTable6rehashEv
FNF:14
FNH:13
DA:4,88
DA:5,88
DA:6,44
DA:7,748
DA:8,704
DA:9,704
DA:10,88
DA:12,0
DA:13,0
DA:14,0
DA:15,0
DA:16,0
DA:17,0
DA:18,0
DA:19,0
DA:20,0
DA:21,0
DA:23,22
DA:24,22
DA:25,11
DA:26,2827
DA:27,2816
DA:28,2816
DA:30,2827
DA:31,2816
DA:32,3938
DA:33,1122
DA:34,1122
DA:36,2816
DA:37,22
DA:39,110
DA:40,55
DA:41,55
DA:42,110
DA:44,11
DA:45,11
DA:46,11
DA:47,11
DA:49,11
DA:50,11
DA:51,11
DA:53,11
DA:54,2827
DA:55,2816
DA:56,2816
DA:58,2827
DA:59,2816
DA:60,3938
DA:61,1122
DA:62,1122
DA:64,2816
DA:65,11
DA:66,11
DA:69,5555
DA:70,5555
DA:71,32329
DA:72,26774
DA:74,5555
DA:77,44
DA:78,44
DA:79,44
DA:81,44
DA:82,44
DA:83,5324
DA:84,5280
DA:85,5280
DA:87,44
DA:88,44
DA:90,2684
DA:91,2640
DA:92,4620
DA:93,1980
DA:94,1980
DA:95,1980
DA:96,1980
DA:98,2640
DA:100,44
DA:101,44
DA:103,5412
DA:104,5412
DA:105,44
DA:106,44
DA:108,5412
DA:109,5412
DA:112,6127
DA:113,726
DA:114,11
DA:115,11
DA:117,715
DA:121,5401
DA:122,5401
DA:123,5401
DA:124,5401
DA:125,5412
DA:127,99
DA:128,99
DA:129,99
DA:131,99
DA:132,88
DA:133,88
DA:135,0
DA:138,11
DA:139,0
DA:141,33
DA:142,33
DA:143,33
DA:145,33
DA:146,11
DA:147,11
DA:149,0
DA:151,22
DA:152,33
DA:154,11
DA:155,11
DA:156,11
DA:157,11
DA:159,11
DA:160,11
DA:161,11
DA:162,11
DA:163,11
DA:164,0
DA:166,11
DA:167,11
DA:168,11
DA:170,0
DA:171,0
DA:173,11
DA:175,88
DA:176,9416
DA:177,9328
DA:178,12738
DA:179,3410
DA:180,3410
DA:181,3410
DA:183,9328
DA:184,9328
DA:185,88
DA:186,88
DA:188,11
DA:189,11
DA:191,187
DA:192,176
DA:193,198
DA:194,22
DA:195,22
DA:197,22
DA:198,22
DA:200,22
DA:201,22
DA:203,22
DA:205,176
DA:206,11
DA:208,11
DA:209,11
DA:211,11
DA:213,33
DA:216,22
DA:217,22
DA:218,22
DA:219,22
DA:221,22
DA:222,22
DA:223,22
DA:224,22
DA:226,22
DA:228,22
DA:229,22
DA:230,22
DA:231,11
LF:170
LH:154
end_of_record
TN:
SF:/Users/danil/education/semestr3/Laba3-semestr3/Laba3/C++/src/LinkedList.cpp
FNL:0,100,118
FNA:0,11,_ZN10LinkedList7popBackEv
FNL:1,120,137
FNA:1,11,_ZN10LinkedList6removeEi
FNL:2,139,160
FNA:2,22,_ZN10LinkedList13removeByValueERKNSt3__112basic_stringIcNS0_11char_traitsIcEENS0_9allocatorIcEEEE
FNL:3,14,14
FNA:3,44,_ZN10LinkedListD1Ev
FNA:3,44,_ZN10LinkedListD2Ev
FNL:4,16,25
FNA:4,11,_ZN10LinkedListaSERKS_
FNL:5,162,169
FNA:5,77,_ZN10LinkedList5clearEv
FNL:6,171,180
FNA:6,11,_ZNK10LinkedList9serializeERNSt3__114basic_ofstreamIcNS0_11char_traitsIcEEEE
FNL:7,182,196
FNA:7,11,_ZN10LinkedList11deserializeERNSt3__114basic_ifstreamIcNS0_11char_traitsIcEEEE
FNL:8,28,33
FNA:8,33,_ZN10LinkedList9pushFrontERKNSt3__112basic_stringIcNS0_11char_traitsIcEENS0_9allocatorIcEEEE
FNL:9,35,47
FNA:9,88,_ZN10LinkedList8pushBackERKNSt3__112basic_stringIcNS0_11char_traitsIcEENS0_9allocatorIcEEEE
FNL:10,4,4
FNA:10,33,_ZN10LinkedListC1Ev
FNA:10,33,_ZN10LinkedListC2Ev
FNL:11,49,66
FNA:11,11,_ZN10LinkedList6insertEiRKNSt3__112basic_stringIcNS0_11char_traitsIcEENS0_9allocatorIcEEEE
FNL:12,6,12
FNA:12,11,_ZN10LinkedListC1ERKS_
FNA:12,11,_ZN10LinkedListC2ERKS_
FNL:13,68,77
FNA:13,66,_ZNK10LinkedList3getEi
FNL:14,79,88
FNA:14,11,_ZN10LinkedList3setEiRKNSt3__112basic_stringIcNS0_11char_traitsIcEENS0_9allocatorIcEEEE
FNL:15,90,98
FNA:15,11,_ZN10LinkedList8popFrontEv
FNF:16
FNH:16
DA:4,66
DA:6,22
DA:7,11
DA:8,33
DA:9,22
DA:10,22
DA:12,22
DA:14,88
DA:16,11
DA:17,11
DA:18,11
DA:19,11
DA:20,33
DA:21,22
DA:22,22
DA:24,11
DA:25,11
DA:28,33
DA:29,33
DA:30,33
DA:31,33
DA:32,33
DA:33,33
DA:35,88
DA:36,88
DA:37,88
DA:38,33
DA:39,33
DA:40,55
DA:41,88
DA:42,33
DA:44,55
DA:46,88
DA:47,88
DA:49,11
DA:50,11
DA:51,0
DA:53,11
DA:54,0
DA:55,0
DA:58,11
DA:59,11
DA:60,22
DA:61,11
DA:62,11
DA:63,11
DA:64,11
DA:65,11
DA:66,11
DA:68,66
DA:69,66
DA:70,0
DA:72,66
DA:73,143
DA:74,77
DA:75,77
DA:76,66
DA:77,0
DA:79,11
DA:80,11
DA:81,0
DA:83,11
DA:84,11
DA:85,0
DA:86,0
DA:87,11
DA:88,11
DA:90,11
DA:91,11
DA:92,0
DA:94,11
DA:95,11
DA:96,11
DA:97,11
DA:98,11
DA:100,11
DA:101,11
DA:102,0
DA:104,11
DA:105,0
DA:106,0
DA:107,0
DA:108,0
DA:111,11
DA:112,33
DA:113,22
DA:115,11
DA:116,11
DA:117,11
DA:118,11
DA:120,11
DA:121,11
DA:122,0
DA:124,11
DA:125,0
DA:126,0
DA:129,11
DA:130,11
DA:131,0
DA:132,0
DA:133,11
DA:134,11
DA:135,11
DA:136,11
DA:137,11
DA:139,22
DA:140,22
DA:141,0
DA:143,22
DA:144,0
DA:145,0
DA:148,22
DA:149,44
DA:150,33
DA:151,11
DA:152,11
DA:153,11
DA:154,11
DA:155,11
DA:157,22
DA:159,11
DA:160,22
DA:162,77
DA:163,165
DA:164,88
DA:165,88
DA:166,88
DA:168,77
DA:169,77
DA:171,11
DA:172,11
DA:173,11
DA:174,33
DA:175,22
DA:176,22
DA:177,22
DA:178,22
DA:180,11
DA:182,11
DA:183,11
DA:185,11
DA:187,33
DA:189,22
DA:190,22
DA:191,22
DA:192,22
DA:193,22
DA:194,22
DA:195,22
DA:196,11
LF:150
LH:128
end_of_record
TN:
SF:/Users/danil/education/semestr3/Laba3-semestr3/Laba3/C++/src/Queue.cpp
FNL:0,14,14
FNA:0,44,_ZN5QueueD1Ev
FNA:0,44,_ZN5QueueD2Ev
FNL:1,16,25
FNA:1,11,_ZN5QueueaSERKS_
FNL:2,28,37
FNA:2,198,_ZN5Queue7enqueueERKNSt3__112basic_stringIcNS0_11char_traitsIcEENS0_9allocatorIcEEEE
FNL:3,39,55
FNA:3,110,_ZN5Queue7dequeueEv
FNL:4,4,4
FNA:4,33,_ZN5QueueC1Ev
FNA:4,33,_ZN5QueueC2Ev
FNL:5,57,62
FNA:5,33,_ZNK5Queue4peekEv
FNL:6,6,12
FNA:6,11,_ZN5QueueC1ERKS_
FNA:6,11,_ZN5QueueC2ERKS_
FNL:7,64,72
FNA:7,77,_ZN5Queue5clearEv
FNL:8,74,83
FNA:8,11,_ZNK5Queue9serializeERNSt3__114basic_ofstreamIcNS0_11char_traitsIcEEEE
FNL:9,85,99
FNA:9,11,_ZN5Queue11deserializeERNSt3__114basic_ifstreamIcNS0_11char_traitsIcEEEE
FNF:10
FNH:10
DA:4,66
DA:6,22
DA:7,11
DA:8,33
DA:9,22
DA:10,22
DA:12,22
DA:14,88
DA:16,11
DA:17,11
DA:18,11
DA:19,11
DA:20,55
DA:21,44
DA:22,44
DA:24,11
DA:25,11
DA:28,198
DA:29,198
DA:30,198
DA:31,55
DA:32,55
DA:33,143
DA:34,143
DA:36,198
DA:37,198
DA:39,110
DA:40,110
DA:41,11
DA:44,99
DA:45,99
DA:46,99
DA:48,99
DA:49,22
DA:50,22
DA:52,99
DA:53,99
DA:54,99
DA:55,99
DA:57,33
DA:58,33
DA:59,11
DA:61,22
DA:62,0
DA:64,77
DA:65,176
DA:66,99
DA:67,99
DA:68,99
DA:70,77
DA:71,77
DA:72,77
DA:74,11
DA:75,11
DA:76,11
DA:77,55
DA:78,44
DA:79,44
DA:80,44
DA:81,44
DA:83,11
DA:85,11
DA:86,11
DA:88,11
DA:90,55
DA:92,44
DA:93,44
DA:94,44
DA:95,44
DA:96,44
DA:97,44
DA:98,44
DA:99,11
LF:73
LH:72
end_of_record
TN:
SF:/Users/danil/education/semestr3/Laba3-semestr3/Laba3/C++/src/Stack.cpp
FNL:0,26,26
FNA:0,66,_ZN5StackD1Ev
FNA:0,66,_ZN5StackD2Ev
FNL:1,28,49
FNA:1,11,_ZN5StackaSERKS_
FNL:2,4,4
FNA:2,55,_ZN5StackC1Ev
FNA:2,55,_ZN5StackC2Ev
FNL:3,51,56
FNA:3,231,_ZN5Stack4pushERKNSt3__112basic_stringIcNS0_11char_traitsIcEENS0_9allocatorIcEEEE
FNL:4,58,69
FNA:4,99,_ZN5Stack3popEv
FNL:5,6,24
FNA:5,11,_ZN5StackC1ERKS_
FNA:5,11,_ZN5StackC2ERKS_
FNL:6,71,76
FNA:6,22,_ZNK5Stack4peekEv
FNL:7,78,85
FNA:7,99,_ZN5Stack5clearEv
FNL:8,87,96
FNA:8,11,_ZNK5Stack9serializeERNSt3__114basic_ofstreamIcNS0_11char_traitsIcEEEE
FNL:9,98,120
FNA:9,11,_ZN5Stack11deserializeERNSt3__114basic_ifstreamIcNS0_11char_traitsIcEEEE
FNF:10
FNH:10
DA:4,110
DA:6,22
DA:7,11
DA:8,0
DA:11,11
DA:12,11
DA:13,44
DA:14,33
DA:15,33
DA:19,11
DA:20,44
DA:21,33
DA:22,33
DA:24,22
DA:26,132
DA:28,11
DA:29,11
DA:30,11
DA:31,11
DA:33,11
DA:34,11
DA:35,44
DA:36,33
DA:37,33
DA:41,11
DA:42,44
DA:43,33
DA:44,33
DA:46,11
DA:47,11
DA:48,11
DA:49,0
DA:51,231
DA:52,231
DA:53,231
DA:54,231
DA:55,231
DA:56,231
DA:58,99
DA:59,99
DA:60,11
DA:63,88
DA:64,88
DA:65,88
DA:66,88
DA:67,88
DA:68,88
DA:69,88
DA:71,22
DA:72,22
DA:73,11
DA:75,11
DA:76,0
DA:78,99
DA:79,242
DA:80,143
DA:81,143
DA:82,143
DA:84,99
DA:85,99
DA:87,11
DA:88,11
DA:89,11
DA:90,44
DA:91,33
DA:92,33
DA:93,33
DA:94,33
DA:96,11
DA:98,11
DA:99,11
DA:101,11
DA:104,11
DA:105,44
DA:107,33
DA:108,33
DA:109,33
DA:110,33
DA:111,33
DA:112,33
DA:113,33
DA:116,44
DA:117,33
DA:118,33
DA:119,11
DA:120,11
LF:86
LH:83
end_of_record
TN:
SF:/Users/danil/education/semestr3/Laba3-semestr3/Laba3/C++/tests/test_array.cpp
FNL:0,0,6
FNA:0,11,__cxx_global_var_init
FNL:1,6,80
FNA:1,11,_ZN37ArrayTest_ComprehensiveArrayTest_Test8TestBodyEv
FNA:1,11,_ZN37ArrayTest_ComprehensiveArrayTest_TestC1Ev
FNA:1,11,_ZN37ArrayTest_ComprehensiveArrayTest_TestC2Ev
FNA:1,11,_ZN37ArrayTest_ComprehensiveArrayTest_TestD0Ev
FNA:1,11,_ZN37ArrayTest_ComprehensiveArrayTest_TestD1Ev
FNA:1,11,_ZN37ArrayTest_ComprehensiveArrayTest_TestD2Ev
FNF:2
FNH:2
DA:6,77
DA:8,11
DA:9,11
DA:10,11
DA:13,11
DA:14,11
DA:15,11
DA:16,11
DA:17,11
DA:18,11
DA:19,11
DA:20,11
DA:23,11
DA:24,11
DA:25,11
DA:26,11
DA:29,11
DA:30,11
DA:33,11
DA:34,11
DA:35,11
DA:38,11
DA:39,11
DA:40,11
DA:43,22
DA:44,11
DA:47,11
DA:48,11
DA:49,11
DA:52,11
DA:53,11
DA:54,11
DA:57,11
DA:58,11
DA:59,11
DA:61,11
DA:62,11
DA:63,11
DA:64,11
DA:66,11
DA:67,11
DA:68,11
DA:71,11
DA:72,11
DA:73,11
DA:76,1111
DA:77,1100
DA:78,1100
DA:79,11
DA:80,33
LF:50
LH:50
end_of_record
TN:
SF:/Users/danil/education/semestr3/Laba3-semestr3/Laba3/C++/tests/test_bst.cpp
FNL:0,0,6
FNA:0,11,__cxx_global_var_init
FNL:1,6,101
FNA:1,11,_ZN46BinarySearchTreeTest_ComprehensiveBSTTest_Test8TestBodyEv
FNA:1,11,_ZN46BinarySearchTreeTest_ComprehensiveBSTTest_TestC1Ev
FNA:1,11,_ZN46BinarySearchTreeTest_ComprehensiveBSTTest_TestC2Ev
FNA:1,11,_ZN46BinarySearchTreeTest_ComprehensiveBSTTest_TestD0Ev
FNA:1,11,_ZN46BinarySearchTreeTest_ComprehensiveBSTTest_TestD1Ev
FNA:1,11,_ZN46BinarySearchTreeTest_ComprehensiveBSTTest_TestD2Ev
FNF:2
FNH:2
DA:6,77
DA:7,11
DA:10,11
DA:11,11
DA:14,11
DA:15,11
DA:16,11
DA:17,11
DA:18,11
DA:19,11
DA:20,11
DA:23,11
DA:24,11
DA:25,11
DA:26,11
DA:27,11
DA:30,11
DA:31,11
DA:34,11
DA:35,11
DA:36,11
DA:39,11
DA:40,11
DA:41,11
DA:42,11
DA:45,11
DA:46,11
DA:47,11
DA:48,11
DA:51,11
DA:52,11
DA:53,99
DA:54,88
DA:56,11
DA:59,99
DA:60,88
DA:64,11
DA:65,11
DA:66,11
DA:67,11
DA:70,11
DA:71,11
DA:72,11
DA:75,11
DA:76,11
DA:77,11
DA:79,11
DA:80,11
DA:81,11
DA:82,11
DA:84,11
DA:85,99
DA:86,88
DA:88,11
DA:91,11
DA:92,11
DA:93,11
DA:96,11011
DA:97,11000
DA:98,11000
DA:99,11
DA:100,11
DA:101,11
LF:63
LH:63
end_of_record
TN:
SF:/Users/danil/education/semestr3/Laba3-semestr3/Laba3/C++/tests/test_doublelinkedlist.cpp
FNL:0,0,6
FNA:0,11,__cxx_global_var_init
FNL:1,6,85
FNA:1,11,_ZN59DoubleLinkedListTest_ComprehensiveDoubleLinkedListTest_Test8TestBodyEv
FNA:1,11,_ZN59DoubleLinkedListTest_ComprehensiveDoubleLinkedListTest_TestC1Ev
FNA:1,11,_ZN59DoubleLinkedListTest_ComprehensiveDoubleLinkedListTest_TestC2Ev
FNA:1,11,_ZN59DoubleLinkedListTest_ComprehensiveDoubleLinkedListTest_TestD0Ev
FNA:1,11,_ZN59DoubleLinkedListTest_ComprehensiveDoubleLinkedListTest_TestD1Ev
FNA:1,11,_ZN59DoubleLinkedListTest_ComprehensiveDoubleLinkedListTest_TestD2Ev
FNF:2
FNH:2
DA:6,77
DA:7,11
DA:10,11
DA:11,11
DA:14,11
DA:15,11
DA:16,11
DA:17,11
DA:18,11
DA:19,11
DA:22,11
DA:23,11
DA:24,11
DA:26,11
DA:27,11
DA:30,11
DA:31,1111
DA:32,1100
DA:33,1100
DA:34,11
DA:37,11
DA:38,11
DA:39,11
DA:42,11
DA:43,11
DA:44,11
DA:45,11
DA:46,11
DA:49,11
DA:50,11
DA:53,11
DA:54,11
DA:56,11
DA:57,11
DA:58,11
DA:61,11
DA:62,11
DA:65,11
DA:66,11
DA:67,11
DA:70,11
DA:71,11
DA:72,11
DA:74,11
DA:75,11
DA:76,11
DA:77,11
DA:79,11
DA:80,11
DA:83,11
DA:84,11
DA:85,11
LF:52
LH:52
end_of_record
TN:
SF:/Users/danil/education/semestr3/Laba3-semestr3/Laba3/C++/tests/test_hashtable.cpp
FNL:0,0,6
FNA:0,11,__cxx_global_var_init
FNL:1,6,85
FNA:1,11,_ZN45HashTableTest_ComprehensiveHashTableTest_Test8TestBodyEv
FNA:1,11,_ZN45HashTableTest_ComprehensiveHashTableTest_TestC1Ev
FNA:1,11,_ZN45HashTableTest_ComprehensiveHashTableTest_TestC2Ev
FNA:1,11,_ZN45HashTableTest_ComprehensiveHashTableTest_TestD0Ev
FNA:1,11,_ZN45HashTableTest_ComprehensiveHashTableTest_TestD1Ev
FNA:1,11,_ZN45HashTableTest_ComprehensiveHashTableTest_TestD2Ev
FNF:2
FNH:2
DA:6,77
DA:7,11
DA:10,11
DA:11,11
DA:14,11
DA:15,11
DA:16,11
DA:17,11
DA:18,11
DA:21,11
DA:22,11
DA:23,11
DA:26,11
DA:29,11
DA:30,11
DA:33,11
DA:34,11
DA:35,11
DA:38,11
DA:39,11
DA:40,11
DA:44,1111
DA:45,1100
DA:46,1100
DA:47,11
DA:50,11
DA:51,11
DA:54,11
DA:55,11
DA:56,11
DA:59,11
DA:60,11
DA:61,11
DA:64,11
DA:65,11
DA:66,11
DA:68,11
DA:69,11
DA:70,11
DA:72,11
DA:73,11
DA:74,11
DA:75,11
DA:77,11
DA:78,11
DA:79,11
DA:82,11
DA:83,11
DA:84,11
DA:85,22
LF:50
LH:50
end_of_record
TN:
SF:/Users/danil/education/semestr3/Laba3-semestr3/Laba3/C++/tests/test_linkedlist.cpp
FNL:0,0,6
FNA:0,11,__cxx_global_var_init
FNL:1,6,77
FNA:1,11,_ZN47LinkedListTest_ComprehensiveLinkedListTest_Test8TestBodyEv
FNA:1,11,_ZN47LinkedListTest_ComprehensiveLinkedListTest_TestC1Ev
FNA:1,11,_ZN47LinkedListTest_ComprehensiveLinkedListTest_TestC2Ev
FNA:1,11,_ZN47LinkedListTest_ComprehensiveLinkedListTest_TestD0Ev
FNA:1,11,_ZN47LinkedListTest_ComprehensiveLinkedListTest_TestD1Ev
FNA:1,11,_ZN47LinkedListTest_ComprehensiveLinkedListTest_TestD2Ev
FNF:2
FNH:2
DA:6,77
DA:7,11
DA:10,11
DA:11,11
DA:14,11
DA:15,11
DA:16,11
DA:17,11
DA:18,11
DA:19,11
DA:21,11
DA:22,11
DA:23,11
DA:26,11
DA:27,11
DA:28,11
DA:31,11
DA:32,11
DA:35,11
DA:36,11
DA:37,11
DA:39,11
DA:40,11
DA:43,11
DA:44,11
DA:47,11
DA:48,11
DA:49,11
DA:52,11
DA:53,11
DA:56,11
DA:57,11
DA:58,11
DA:61,11
DA:62,11
DA:63,11
DA:65,11
DA:66,11
DA:67,11
DA:68,11
DA:70,11
DA:71,11
DA:74,11
DA:75,11
DA:76,11
DA:77,11
LF:46
LH:46
end_of_record
TN:
SF:/Users/danil/education/semestr3/Laba3-semestr3/Laba3/C++/tests/test_queue.cpp
FNL:0,0,6
FNA:0,11,__cxx_global_var_init
FNL:1,6,75
FNA:1,11,_ZN37QueueTest_ComprehensiveQueueTest_Test8TestBodyEv
FNA:1,11,_ZN37QueueTest_ComprehensiveQueueTest_TestC1Ev
FNA:1,11,_ZN37QueueTest_ComprehensiveQueueTest_TestC2Ev
FNA:1,11,_ZN37QueueTest_ComprehensiveQueueTest_TestD0Ev
FNA:1,11,_ZN37QueueTest_ComprehensiveQueueTest_TestD1Ev
FNA:1,11,_ZN37QueueTest_ComprehensiveQueueTest_TestD2Ev
FNF:2
FNH:2
DA:6,77
DA:7,11
DA:10,11
DA:11,11
DA:14,11
DA:15,11
DA:16,11
DA:17,11
DA:18,11
DA:21,11
DA:22,11
DA:25,11
DA:26,11
DA:27,11
DA:30,11
DA:31,22
DA:32,22
DA:35,11
DA:36,11
DA:37,11
DA:38,11
DA:39,11
DA:42,11
DA:43,11
DA:44,11
DA:47,11
DA:48,11
DA:49,11
DA:50,11
DA:51,11
DA:54,11
DA:55,11
DA:56,11
DA:58,11
DA:59,11
DA:60,11
DA:61,11
DA:63,11
DA:65,11
DA:66,11
DA:67,11
DA:68,11
DA:69,11
DA:72,11
DA:73,11
DA:74,11
DA:75,33
LF:47
LH:47
end_of_record
TN:
SF:/Users/danil/education/semestr3/Laba3-semestr3/Laba3/C++/tests/test_stack.cpp
FNL:0,0,6
FNA:0,11,__cxx_global_var_init
FNL:1,6,69
FNA:1,11,_ZN37StackTest_ComprehensiveStackTest_Test8TestBodyEv
FNA:1,11,_ZN37StackTest_ComprehensiveStackTest_TestC1Ev
FNA:1,11,_ZN37StackTest_ComprehensiveStackTest_TestC2Ev
FNA:1,11,_ZN37StackTest_ComprehensiveStackTest_TestD0Ev
FNA:1,11,_ZN37StackTest_ComprehensiveStackTest_TestD1Ev
FNA:1,11,_ZN37StackTest_ComprehensiveStackTest_TestD2Ev
FNF:2
FNH:2
DA:6,77
DA:7,11
DA:10,11
DA:11,11
DA:14,11
DA:15,11
DA:16,11
DA:17,11
DA:18,11
DA:21,11
DA:22,11
DA:25,11
DA:26,11
DA:27,11
DA:30,11
DA:31,22
DA:32,22
DA:35,11
DA:36,11
DA:37,11
DA:39,11
DA:40,11
DA:41,11
DA:42,11
DA:45,11
DA:46,11
DA:47,11
DA:50,11
DA:51,11
DA:52,11
DA:54,11
DA:55,11
DA:56,11
DA:57,11
DA:59,11
DA:60,11
DA:61,11
DA:62,11
DA:63,11
DA:66,11
DA:67,11
DA:68,11
DA:69,33
LF:43
LH:43
end_of_record
TN:
SF:/opt/homebrew/include/gtest/gtest-assertion-result.h
FNL:0,140,162
FNA:0,1892,_ZN7testing15AssertionResultD1Ev
FNA:0,1892,_ZN7testing15AssertionResultD2Ev
FNL:1,162,168
FNA:1,627,_ZN7testing15AssertionResultC1IbEERKT_PNSt3__19enable_ifIXntsr3std14is_convertibleIS2_S0_EE5valueEvE4typeE
FNA:1,627,_ZN7testing15AssertionResultC2IbEERKT_PNSt3__19enable_ifIXntsr3std14is_convertibleIS2_S0_EE5valueEvE4typeE
FNL:2,181,181
FNA:2,1892,_ZNK7testing15AssertionResultcvbEv
FNL:3,190,191
FNA:3,0,_ZNK7testing15AssertionResult7messageEv
FNL:4,194,194
FNA:4,0,_ZNK7testing15AssertionResult15failure_messageEv
FNF:5
FNH:3
DA:162,1881
DA:168,1881
DA:181,1892
DA:190,0
DA:191,0
DA:194,0
LF:6
LH:3
end_of_record
TN:
SF:/opt/homebrew/include/gtest/gtest-message.h
FNL:0,101
FNA:0,0,_ZN7testing7MessageD1Ev
FNA:0,0,_ZN7testing7MessageD2Ev
FNF:1
FNH:0
LF:0
LH:0
end_of_record
TN:
SF:/opt/homebrew/include/gtest/gtest-printers.h
FNL:0,1064,1066
FNA:0,0,_ZN7testing8internal21UniversalTersePrinterINSt3__112basic_stringIcNS2_11char_traitsIcEENS2_9allocatorIcEEEEE5PrintERKS8_PNS2_13basic_ostreamIcS5_EE
FNA:0,0,_ZN7testing8internal21UniversalTersePrinterIiE5PrintERKiPNSt3__113basic_ostreamIcNS5_11char_traitsIcEEEE
FNL:1,1092,1098
FNA:1,0,_ZN7testing8internal21UniversalTersePrinterIPKcE5PrintES3_PNSt3__113basic_ostreamIcNS5_11char_traitsIcEEEE
FNL:2,1183,1188
FNA:2,0,_ZN7testing8internal14UniversalPrintINSt3__112basic_stringIcNS2_11char_traitsIcEENS2_9allocatorIcEEEEEEvRKT_PNS2_13basic_ostreamIcS5_EE
FNA:2,0,_ZN7testing8internal14UniversalPrintIiEEvRKT_PNSt3__113basic_ostreamIcNS5_11char_traitsIcEEEE
FNL:3,1223,1227
FNA:3,0,_ZN7testing13PrintToStringINSt3__112basic_stringIcNS1_11char_traitsIcEENS1_9allocatorIcEEEEEES7_RKT_
FNA:3,0,_ZN7testing13PrintToStringIPKcEENSt3__112basic_stringIcNS3_11char_traitsIcEENS3_9allocatorIcEEEERKT_
FNA:3,0,_ZN7testing13PrintToStringIiEENSt3__112basic_stringIcNS1_11char_traitsIcEENS1_9allocatorIcEEEERKT_
FNL:4,248,253
FNA:4,0,_ZN7testing8internal52internal_stream_operator_without_lexical_name_lookup13StreamPrinter10PrintValueIivEEDTcvvlsdefp0_fp_ERKT_PNSt3__113basic_ostreamIcNS8_11char_traitsIcEEEE
FNL:5,352,363
FNA:5,0,_ZN7testing8internal17PrintWithFallbackIiEEvRKT_PNSt3__113basic_ostreamIcNS5_11char_traitsIcEEEE
FNL:6,383,384
FNA:6,0,_ZN7testing8internal19FormatForComparisonINSt3__112basic_stringIcNS2_11char_traitsIcEENS2_9allocatorIcEEEEA2_cE6FormatERKS8_
FNA:6,0,_ZN7testing8internal19FormatForComparisonINSt3__112basic_stringIcNS2_11char_traitsIcEENS2_9allocatorIcEEEEA3_cE6FormatERKS8_
FNA:6,0,_ZN7testing8internal19FormatForComparisonINSt3__112basic_stringIcNS2_11char_traitsIcEENS2_9allocatorIcEEEEA4_cE6FormatERKS8_
FNA:6,0,_ZN7testing8internal19FormatForComparisonINSt3__112basic_stringIcNS2_11char_traitsIcEENS2_9allocatorIcEEEEA5_cE6FormatERKS8_
FNA:6,0,_ZN7testing8internal19FormatForComparisonINSt3__112basic_stringIcNS2_11char_traitsIcEENS2_9allocatorIcEEEEA6_cE6FormatERKS8_
FNA:6,0,_ZN7testing8internal19FormatForComparisonINSt3__112basic_stringIcNS2_11char_traitsIcEENS2_9allocatorIcEEEEA7_cE6FormatERKS8_
FNA:6,0,_ZN7testing8internal19FormatForComparisonINSt3__112basic_stringIcNS2_11char_traitsIcEENS2_9allocatorIcEEEEA8_cE6FormatERKS8_
FNA:6,0,_ZN7testing8internal19FormatForComparisonINSt3__112basic_stringIcNS2_11char_traitsIcEENS2_9allocatorIcEEEEA9_cE6FormatERKS8_
FNA:6,0,_ZN7testing8internal19FormatForComparisonINSt3__112basic_stringIcNS2_11char_traitsIcEENS2_9allocatorIcEEEES8_E6FormatERKS8_
FNA:6,0,_ZN7testing8internal19FormatForComparisonIiiE6FormatERKi
FNL:7,392,393
FNA:7,0,_ZN7testing8internal19FormatForComparisonIA2_cNSt3__112basic_stringIcNS3_11char_traitsIcEENS3_9allocatorIcEEEEE6FormatEPKc
FNA:7,0,_ZN7testing8internal19FormatForComparisonIA3_cNSt3__112basic_stringIcNS3_11char_traitsIcEENS3_9allocatorIcEEEEE6FormatEPKc
FNA:7,0,_ZN7testing8internal19FormatForComparisonIA4_cNSt3__112basic_stringIcNS3_11char_traitsIcEENS3_9allocatorIcEEEEE6FormatEPKc
FNA:7,0,_ZN7testing8internal19FormatForComparisonIA5_cNSt3__112basic_stringIcNS3_11char_traitsIcEENS3_9allocatorIcEEEEE6FormatEPKc
FNA:7,0,_ZN7testing8internal19FormatForComparisonIA6_cNSt3__112basic_stringIcNS3_11char_traitsIcEENS3_9allocatorIcEEEEE6FormatEPKc
FNA:7,0,_ZN7testing8internal19FormatForComparisonIA7_cNSt3__112basic_stringIcNS3_11char_traitsIcEENS3_9allocatorIcEEEEE6FormatEPKc
FNA:7,0,_ZN7testing8internal19FormatForComparisonIA8_cNSt3__112basic_stringIcNS3_11char_traitsIcEENS3_9allocatorIcEEEEE6FormatEPKc
FNA:7,0,_ZN7testing8internal19FormatForComparisonIA9_cNSt3__112basic_stringIcNS3_11char_traitsIcEENS3_9allocatorIcEEEEE6FormatEPKc
FNL:8,437,437
FNA:8,0,_ZN7testing8internal19FormatForComparisonIPKcNSt3__112basic_stringIcNS4_11char_traitsIcEENS4_9allocatorIcEEEEE6FormatES3_
FNL:9,463,465
FNA:9,0,_ZN7testing8internal33FormatForComparisonFailureMessageIA2_cNSt3__112basic_stringIcNS3_11char_traitsIcEENS3_9allocatorIcEEEEEES9_RKT_RKT0_
FNA:9,0,_ZN7testing8internal33FormatForComparisonFailureMessageIA3_cNSt3__112basic_stringIcNS3_11char_traitsIcEENS3_9allocatorIcEEEEEES9_RKT_RKT0_
FNA:9,0,_ZN7testing8internal33FormatForComparisonFailureMessageIA4_cNSt3__112basic_stringIcNS3_11char_traitsIcEENS3_9allocatorIcEEEEEES9_RKT_RKT0_
FNA:9,0,_ZN7testing8internal33FormatForComparisonFailureMessageIA5_cNSt3__112basic_stringIcNS3_11char_traitsIcEENS3_9allocatorIcEEEEEES9_RKT_RKT0_
FNA:9,0,_ZN7testing8internal33FormatForComparisonFailureMessageIA6_cNSt3__112basic_stringIcNS3_11char_traitsIcEENS3_9allocatorIcEEEEEES9_RKT_RKT0_
FNA:9,0,_ZN7testing8internal33FormatForComparisonFailureMessageIA7_cNSt3__112basic_stringIcNS3_11char_traitsIcEENS3_9allocatorIcEEEEEES9_RKT_RKT0_
FNA:9,0,_ZN7testing8internal33FormatForComparisonFailureMessageIA8_cNSt3__112basic_stringIcNS3_11char_traitsIcEENS3_9allocatorIcEEEEEES9_RKT_RKT0_
FNA:9,0,_ZN7testing8internal33FormatForComparisonFailureMessageIA9_cNSt3__112basic_stringIcNS3_11char_traitsIcEENS3_9allocatorIcEEEEEES9_RKT_RKT0_
FNA:9,0,_ZN7testing8internal33FormatForComparisonFailureMessageINSt3__112basic_stringIcNS2_11char_traitsIcEENS2_9allocatorIcEEEEA2_cEES8_RKT_RKT0_
FNA:9,0,_ZN7testing8internal33FormatForComparisonFailureMessageINSt3__112basic_stringIcNS2_11char_traitsIcEENS2_9allocatorIcEEEEA3_cEES8_RKT_RKT0_
FNA:9,0,_ZN7testing8internal33FormatForComparisonFailureMessageINSt3__112basic_stringIcNS2_11char_traitsIcEENS2_9allocatorIcEEEEA4_cEES8_RKT_RKT0_
FNA:9,0,_ZN7testing8internal33FormatForComparisonFailureMessageINSt3__112basic_stringIcNS2_11char_traitsIcEENS2_9allocatorIcEEEEA5_cEES8_RKT_RKT0_
FNA:9,0,_ZN7testing8internal33FormatForComparisonFailureMessageINSt3__112basic_stringIcNS2_11char_traitsIcEENS2_9allocatorIcEEEEA6_cEES8_RKT_RKT0_
FNA:9,0,_ZN7testing8internal33FormatForComparisonFailureMessageINSt3__112basic_stringIcNS2_11char_traitsIcEENS2_9allocatorIcEEEEA7_cEES8_RKT_RKT0_
FNA:9,0,_ZN7testing8internal33FormatForComparisonFailureMessageINSt3__112basic_stringIcNS2_11char_traitsIcEENS2_9allocatorIcEEEEA8_cEES8_RKT_RKT0_
FNA:9,0,_ZN7testing8internal33FormatForComparisonFailureMessageINSt3__112basic_stringIcNS2_11char_traitsIcEENS2_9allocatorIcEEEEA9_cEES8_RKT_RKT0_
FNA:9,0,_ZN7testing8internal33FormatForComparisonFailureMessageINSt3__112basic_stringIcNS2_11char_traitsIcEENS2_9allocatorIcEEEES8_EES8_RKT_RKT0_
FNA:9,0,_ZN7testing8internal33FormatForComparisonFailureMessageIiiEENSt3__112basic_stringIcNS2_11char_traitsIcEENS2_9allocatorIcEEEERKT_RKT0_
FNL:10,490,492
FNA:10,0,_ZN7testing8internal7PrintToIiEEvRKT_PNSt3__113basic_ostreamIcNS5_11char_traitsIcEEEE
FNL:11,700,702
FNA:11,0,_ZN7testing8internal7PrintToERKNSt3__112basic_stringIcNS1_11char_traitsIcEENS1_9allocatorIcEEEEPNS1_13basic_ostreamIcS4_EE
FNL:12,874,884
FNA:12,0,_ZN7testing8internal16UniversalPrinterINSt3__112basic_stringIcNS2_11char_traitsIcEENS2_9allocatorIcEEEEE5PrintERKS8_PNS2_13basic_ostreamIcS5_EE
FNA:12,0,_ZN7testing8internal16UniversalPrinterIiE5PrintERKiPNSt3__113basic_ostreamIcNS5_11char_traitsIcEEEE
FNF:13
FNH:0
DA:248,0
DA:252,0
DA:253,0
DA:352,0
DA:362,0
DA:363,0
DA:383,0
DA:384,0
DA:392,0
DA:393,0
DA:437,0
DA:463,0
DA:465,0
DA:490,0
DA:491,0
DA:492,0
DA:700,0
DA:701,0
DA:702,0
DA:874,0
DA:883,0
DA:884,0
DA:1064,0
DA:1065,0
DA:1066,0
DA:1092,0
DA:1093,0
DA:1094,0
DA:1095,0
DA:1096,0
DA:1098,0
DA:1183,0
DA:1187,0
DA:1188,0
DA:1223,0
DA:1224,0
DA:1225,0
DA:1226,0
DA:1227,0
LF:39
LH:0
end_of_record
TN:
SF:/opt/homebrew/include/gtest/gtest.h
FNL:0,1374,1380
FNA:0,0,_ZN7testing8internal18CmpHelperEQFailureINSt3__112basic_stringIcNS2_11char_traitsIcEENS2_9allocatorIcEEEEA2_cEENS_15AssertionResultEPKcSC_RKT_RKT0_
FNA:0,0,_ZN7testing8internal18CmpHelperEQFailureINSt3__112basic_stringIcNS2_11char_traitsIcEENS2_9allocatorIcEEEEA3_cEENS_15AssertionResultEPKcSC_RKT_RKT0_
FNA:0,0,_ZN7testing8internal18CmpHelperEQFailureINSt3__112basic_stringIcNS2_11char_traitsIcEENS2_9allocatorIcEEEEA4_cEENS_15AssertionResultEPKcSC_RKT_RKT0_
FNA:0,0,_ZN7testing8internal18CmpHelperEQFailureINSt3__112basic_stringIcNS2_11char_traitsIcEENS2_9allocatorIcEEEEA5_cEENS_15AssertionResultEPKcSC_RKT_RKT0_
FNA:0,0,_ZN7testing8internal18CmpHelperEQFailureINSt3__112basic_stringIcNS2_11char_traitsIcEENS2_9allocatorIcEEEEA6_cEENS_15AssertionResultEPKcSC_RKT_RKT0_
FNA:0,0,_ZN7testing8internal18CmpHelperEQFailureINSt3__112basic_stringIcNS2_11char_traitsIcEENS2_9allocatorIcEEEEA7_cEENS_15AssertionResultEPKcSC_RKT_RKT0_
FNA:0,0,_ZN7testing8internal18CmpHelperEQFailureINSt3__112basic_stringIcNS2_11char_traitsIcEENS2_9allocatorIcEEEEA8_cEENS_15AssertionResultEPKcSC_RKT_RKT0_
FNA:0,0,_ZN7testing8internal18CmpHelperEQFailureINSt3__112basic_stringIcNS2_11char_traitsIcEENS2_9allocatorIcEEEEA9_cEENS_15AssertionResultEPKcSC_RKT_RKT0_
FNA:0,0,_ZN7testing8internal18CmpHelperEQFailureINSt3__112basic_stringIcNS2_11char_traitsIcEENS2_9allocatorIcEEEES8_EENS_15AssertionResultEPKcSB_RKT_RKT0_
FNA:0,0,_ZN7testing8internal18CmpHelperEQFailureIiiEENS_15AssertionResultEPKcS4_RKT_RKT0_
FNL:1,1391,1399
FNA:1,88,_ZN7testing8internal11CmpHelperEQINSt3__112basic_stringIcNS2_11char_traitsIcEENS2_9allocatorIcEEEEA2_cEENS_15AssertionResultEPKcSC_RKT_RKT0_
FNA:1,11,_ZN7testing8internal11CmpHelperEQINSt3__112basic_stringIcNS2_11char_traitsIcEENS2_9allocatorIcEEEEA3_cEENS_15AssertionResultEPKcSC_RKT_RKT0_
FNA:1,22,_ZN7testing8internal11CmpHelperEQINSt3__112basic_stringIcNS2_11char_traitsIcEENS2_9allocatorIcEEEEA4_cEENS_15AssertionResultEPKcSC_RKT_RKT0_
FNA:1,99,_ZN7testing8internal11CmpHelperEQINSt3__112basic_stringIcNS2_11char_traitsIcEENS2_9allocatorIcEEEEA5_cEENS_15AssertionResultEPKcSC_RKT_RKT0_
FNA:1,99,_ZN7testing8internal11CmpHelperEQINSt3__112basic_stringIcNS2_11char_traitsIcEENS2_9allocatorIcEEEEA6_cEENS_15AssertionResultEPKcSC_RKT_RKT0_
FNA:1,132,_ZN7testing8internal11CmpHelperEQINSt3__112basic_stringIcNS2_11char_traitsIcEENS2_9allocatorIcEEEEA7_cEENS_15AssertionResultEPKcSC_RKT_RKT0_
FNA:1,11,_ZN7testing8internal11CmpHelperEQINSt3__112basic_stringIcNS2_11char_traitsIcEENS2_9allocatorIcEEEEA8_cEENS_15AssertionResultEPKcSC_RKT_RKT0_
FNA:1,55,_ZN7testing8internal11CmpHelperEQINSt3__112basic_stringIcNS2_11char_traitsIcEENS2_9allocatorIcEEEEA9_cEENS_15AssertionResultEPKcSC_RKT_RKT0_
FNA:1,22,_ZN7testing8internal11CmpHelperEQINSt3__112basic_stringIcNS2_11char_traitsIcEENS2_9allocatorIcEEEES8_EENS_15AssertionResultEPKcSB_RKT_RKT0_
FNA:1,726,_ZN7testing8internal11CmpHelperEQIiiEENS_15AssertionResultEPKcS4_RKT_RKT0_
FNL:2,1410,1413
FNA:2,88,_ZN7testing8internal8EqHelper7CompareINSt3__112basic_stringIcNS3_11char_traitsIcEENS3_9allocatorIcEEEEA2_cLPv0EEENS_15AssertionResultEPKcSE_RKT_RKT0_
FNA:2,11,_ZN7testing8internal8EqHelper7CompareINSt3__112basic_stringIcNS3_11char_traitsIcEENS3_9allocatorIcEEEEA3_cLPv0EEENS_15AssertionResultEPKcSE_RKT_RKT0_
FNA:2,22,_ZN7testing8internal8EqHelper7CompareINSt3__112basic_stringIcNS3_11char_traitsIcEENS3_9allocatorIcEEEEA4_cLPv0EEENS_15AssertionResultEPKcSE_RKT_RKT0_
FNA:2,99,_ZN7testing8internal8EqHelper7CompareINSt3__112basic_stringIcNS3_11char_traitsIcEENS3_9allocatorIcEEEEA5_cLPv0EEENS_15AssertionResultEPKcSE_RKT_RKT0_
FNA:2,99,_ZN7testing8internal8EqHelper7CompareINSt3__112basic_stringIcNS3_11char_traitsIcEENS3_9allocatorIcEEEEA6_cLPv0EEENS_15AssertionResultEPKcSE_RKT_RKT0_
FNA:2,132,_ZN7testing8internal8EqHelper7CompareINSt3__112basic_stringIcNS3_11char_traitsIcEENS3_9allocatorIcEEEEA7_cLPv0EEENS_15AssertionResultEPKcSE_RKT_RKT0_
FNA:2,11,_ZN7testing8internal8EqHelper7CompareINSt3__112basic_stringIcNS3_11char_traitsIcEENS3_9allocatorIcEEEEA8_cLPv0EEENS_15AssertionResultEPKcSE_RKT_RKT0_
FNA:2,55,_ZN7testing8internal8EqHelper7CompareINSt3__112basic_stringIcNS3_11char_traitsIcEENS3_9allocatorIcEEEEA9_cLPv0EEENS_15AssertionResultEPKcSE_RKT_RKT0_
FNA:2,22,_ZN7testing8internal8EqHelper7CompareINSt3__112basic_stringIcNS3_11char_traitsIcEENS3_9allocatorIcEEEES9_LPv0EEENS_15AssertionResultEPKcSD_RKT_RKT0_
FNA:2,726,_ZN7testing8internal8EqHelper7CompareIiiLPv0EEENS_15AssertionResultEPKcS6_RKT_RKT0_
FNL:3,255,255
FNA:3,0,_ZN7testing4Test14SetUpTestSuiteEv
FNL:4,263,263
FNA:4,0,_ZN7testing4Test17TearDownTestSuiteEv
FNL:5,268,268
FNA:5,0,_ZN7testing4Test16TearDownTestCaseEv
FNL:6,269,269
FNA:6,0,_ZN7testing4Test13SetUpTestCaseEv
FNL:7,356,356
FNA:7,0,_ZN7testing4Test5SetupEv
FNF:8
FNH:2
DA:255,0
DA:263,0
DA:268,0
DA:269,0
DA:356,0
DA:1374,0
DA:1377,0
DA:1378,0
DA:1379,0
DA:1380,0
DA:1391,1265
DA:1394,1265
DA:1395,1265
DA:1398,0
DA:1399,1265
DA:1410,1265
DA:1413,1265
LF:17
LH:6
end_of_record
TN:
SF:/opt/homebrew/include/gtest/internal/gtest-internal.h
FNL:0,429,429
FNA:0,0,_ZN7testing8internal15TestFactoryBaseD0Ev
FNA:0,0,_ZN7testing8internal15TestFactoryBaseD1Ev
FNA:0,0,_ZN7testing8internal15TestFactoryBaseD2Ev
FNL:1,436,436
FNA:1,77,_ZN7testing8internal15TestFactoryBaseC2Ev
FNL:2,446
FNA:2,11,_ZN7testing8internal15TestFactoryImplI37ArrayTest_ComprehensiveArrayTest_TestEC1Ev
FNA:2,11,_ZN7testing8internal15TestFactoryImplI37ArrayTest_ComprehensiveArrayTest_TestEC2Ev
FNA:2,0,_ZN7testing8internal15TestFactoryImplI37ArrayTest_ComprehensiveArrayTest_TestED0Ev
FNA:2,0,_ZN7testing8internal15TestFactoryImplI37ArrayTest_ComprehensiveArrayTest_TestED1Ev
FNA:2,0,_ZN7testing8internal15TestFactoryImplI37ArrayTest_ComprehensiveArrayTest_TestED2Ev
FNA:2,11,_ZN7testing8internal15TestFactoryImplI37QueueTest_ComprehensiveQueueTest_TestEC1Ev
FNA:2,11,_ZN7testing8internal15TestFactoryImplI37QueueTest_ComprehensiveQueueTest_TestEC2Ev
FNA:2,0,_ZN7testing8internal15TestFactoryImplI37QueueTest_ComprehensiveQueueTest_TestED0Ev
FNA:2,0,_ZN7testing8internal15TestFactoryImplI37QueueTest_ComprehensiveQueueTest_TestED1Ev
FNA:2,0,_ZN7testing8internal15TestFactoryImplI37QueueTest_ComprehensiveQueueTest_TestED2Ev
FNA:2,11,_ZN7testing8internal15TestFactoryImplI37StackTest_ComprehensiveStackTest_TestEC1Ev
FNA:2,11,_ZN7testing8internal15TestFactoryImplI37StackTest_ComprehensiveStackTest_TestEC2Ev
FNA:2,0,_ZN7testing8internal15TestFactoryImplI37StackTest_ComprehensiveStackTest_TestED0Ev
FNA:2,0,_ZN7testing8internal15TestFactoryImplI37StackTest_ComprehensiveStackTest_TestED1Ev
FNA:2,0,_ZN7testing8internal15TestFactoryImplI37StackTest_ComprehensiveStackTest_TestED2Ev
FNA:2,11,_ZN7testing8internal15TestFactoryImplI45HashTableTest_ComprehensiveHashTableTest_TestEC1Ev
FNA:2,11,_ZN7testing8internal15TestFactoryImplI45HashTableTest_ComprehensiveHashTableTest_TestEC2Ev
FNA:2,0,_ZN7testing8internal15TestFactoryImplI45HashTableTest_ComprehensiveHashTableTest_TestED0Ev
FNA:2,0,_ZN7testing8internal15TestFactoryImplI45HashTableTest_ComprehensiveHashTableTest_TestED1Ev
FNA:2,0,_ZN7testing8internal15TestFactoryImplI45HashTableTest_ComprehensiveHashTableTest_TestED2Ev
FNA:2,11,_ZN7testing8internal15TestFactoryImplI46BinarySearchTreeTest_ComprehensiveBSTTest_TestEC1Ev
FNA:2,11,_ZN7testing8internal15TestFactoryImplI46BinarySearchTreeTest_ComprehensiveBSTTest_TestEC2Ev
FNA:2,0,_ZN7testing8internal15TestFactoryImplI46BinarySearchTreeTest_ComprehensiveBSTTest_TestED0Ev
FNA:2,0,_ZN7testing8internal15TestFactoryImplI46BinarySearchTreeTest_ComprehensiveBSTTest_TestED1Ev
FNA:2,0,_ZN7testing8internal15TestFactoryImplI46BinarySearchTreeTest_ComprehensiveBSTTest_TestED2Ev
FNA:2,11,_ZN7testing8internal15TestFactoryImplI47LinkedListTest_ComprehensiveLinkedListTest_TestEC1Ev
FNA:2,11,_ZN7testing8internal15TestFactoryImplI47LinkedListTest_ComprehensiveLinkedListTest_TestEC2Ev
FNA:2,0,_ZN7testing8internal15TestFactoryImplI47LinkedListTest_ComprehensiveLinkedListTest_TestED0Ev
FNA:2,0,_ZN7testing8internal15TestFactoryImplI47LinkedListTest_ComprehensiveLinkedListTest_TestED1Ev
FNA:2,0,_ZN7testing8internal15TestFactoryImplI47LinkedListTest_ComprehensiveLinkedListTest_TestED2Ev
FNA:2,11,_ZN7testing8internal15TestFactoryImplI59DoubleLinkedListTest_ComprehensiveDoubleLinkedListTest_TestEC1Ev
FNA:2,11,_ZN7testing8internal15TestFactoryImplI59DoubleLinkedListTest_ComprehensiveDoubleLinkedListTest_TestEC2Ev
FNA:2,0,_ZN7testing8internal15TestFactoryImplI59DoubleLinkedListTest_ComprehensiveDoubleLinkedListTest_TestED0Ev
FNA:2,0,_ZN7testing8internal15TestFactoryImplI59DoubleLinkedListTest_ComprehensiveDoubleLinkedListTest_TestED1Ev
FNA:2,0,_ZN7testing8internal15TestFactoryImplI59DoubleLinkedListTest_ComprehensiveDoubleLinkedListTest_TestED2Ev
FNL:3,448,448
FNA:3,11,_ZN7testing8internal15TestFactoryImplI37ArrayTest_ComprehensiveArrayTest_TestE10CreateTestEv
FNA:3,11,_ZN7testing8internal15TestFactoryImplI37QueueTest_ComprehensiveQueueTest_TestE10CreateTestEv
FNA:3,11,_ZN7testing8internal15TestFactoryImplI37StackTest_ComprehensiveStackTest_TestE10CreateTestEv
FNA:3,11,_ZN7testing8internal15TestFactoryImplI45HashTableTest_ComprehensiveHashTableTest_TestE10CreateTestEv
FNA:3,11,_ZN7testing8internal15TestFactoryImplI46BinarySearchTreeTest_ComprehensiveBSTTest_TestE10CreateTestEv
FNA:3,11,_ZN7testing8internal15TestFactoryImplI47LinkedListTest_ComprehensiveLinkedListTest_TestE10CreateTestEv
FNA:3,11,_ZN7testing8internal15TestFactoryImplI59DoubleLinkedListTest_ComprehensiveDoubleLinkedListTest_TestE10CreateTestEv
FNL:4,468
FNA:4,77,_ZN7testing8internal12CodeLocationD1Ev
FNA:4,77,_ZN7testing8internal12CodeLocationD2Ev
FNL:5,469,470
FNA:5,77,_ZN7testing8internal12CodeLocationC1ENSt3__112basic_stringIcNS2_11char_traitsIcEENS2_9allocatorIcEEEEi
FNA:5,77,_ZN7testing8internal12CodeLocationC2ENSt3__112basic_stringIcNS2_11char_traitsIcEENS2_9allocatorIcEEEEi
FNL:6,482,484
FNA:6,308,_ZN7testing8internal19GetNotDefaultOrNullEPFvvES2_
FNL:7,497,516
FNA:7,77,_ZN7testing8internal16SuiteApiResolverINS_4TestEE19GetSetUpCaseOrSuiteEPKci
FNL:8,518,537
FNA:8,77,_ZN7testing8internal16SuiteApiResolverINS_4TestEE22GetTearDownCaseOrSuiteEPKci
FNL:9,828
FNA:9,77,_ZN7testing8internal14TrueWithStringD1Ev
FNA:9,77,_ZN7testing8internal14TrueWithStringD2Ev
FNL:10,829,829
FNA:10,77,_ZN7testing8internal14TrueWithStringC1Ev
FNA:10,77,_ZN7testing8internal14TrueWithStringC2Ev
FNL:11,832,832
FNA:11,77,_ZNK7testing8internal14TrueWithStringcvbEv
FNF:12
FNH:11
DA:429,0
DA:436,77
DA:448,77
DA:469,154
DA:470,154
DA:482,308
DA:484,308
DA:497,77
DA:500,77
DA:501,77
DA:502,77
DA:503,77
DA:505,77
DA:506,0
DA:508,0
DA:510,77
DA:516,0
DA:518,77
DA:521,77
DA:522,77
DA:523,77
DA:524,77
DA:526,77
DA:527,0
DA:529,0
DA:531,77
DA:537,0
DA:829,154
DA:832,77
LF:29
LH:22
end_of_record
TN:
SF:/opt/homebrew/include/gtest/internal/gtest-port.h
FNL:0,1050,1050
FNA:0,0,_ZN7testing8internal8GTestLog9GetStreamEv
FNF:1
FNH:0
DA:1050,0
LF:1
LH:0
end_of_record
TN:
SF:/opt/homebrew/include/gtest/internal/gtest-type-util.h
FNL:0,61,86
FNA:0,0,_ZN7testing8internal31CanonicalizeForStdLibVersioningENSt3__112basic_stringIcNS1_11char_traitsIcEENS1_9allocatorIcEEEE
FNL:1,91,121
FNA:1,0,_ZN7testing8internal11GetTypeNameERKSt9type_info
FNF:2
FNH:0
DA:61,0
DA:63,0
DA:64,0
DA:65,0
DA:67,0
DA:68,0
DA:69,0
DA:74,0
DA:75,0
DA:76,0
DA:78,0
DA:79,0
DA:80,0
DA:83,0
DA:84,0
DA:86,0
DA:91,0
DA:92,0
DA:94,0
DA:100,0
DA:101,0
DA:102,0
DA:103,0
DA:121,0
LF:24
LH:0
end_of_record
